	.file	"core_matrix.c"
	.option nopic
	.attribute arch, "rv32i2p0_m2p0"
	.attribute unaligned_access, 0
	.attribute stack_align, 16
	.text
.Ltext0:
	.cfi_sections	.debug_frame
	.section	.text.matrix_test,"ax",@progbits
	.align	2
	.globl	matrix_test
	.type	matrix_test, @function
matrix_test:
.LFB4:
	.file 1 "../tests/custom/coremark/core_matrix.c"
	.loc 1 149 1
	.cfi_startproc
.LVL0:
	addi	sp,sp,-96
	.cfi_def_cfa_offset 96
	sw	s2,80(sp)
	sw	ra,92(sp)
	.cfi_offset 18, -16
	.cfi_offset 1, -4
	.loc 1 151 12 is_stmt 0
	li	s2,-4096
	.loc 1 149 1
	sw	s0,88(sp)
	sw	s1,84(sp)
	sw	s3,76(sp)
	sw	s4,72(sp)
	sw	s5,68(sp)
	sw	s6,64(sp)
	sw	s7,60(sp)
	sw	s8,56(sp)
	sw	s9,52(sp)
	sw	s10,48(sp)
	sw	s11,44(sp)
	.cfi_offset 8, -8
	.cfi_offset 9, -12
	.cfi_offset 19, -20
	.cfi_offset 20, -24
	.cfi_offset 21, -28
	.cfi_offset 22, -32
	.cfi_offset 23, -36
	.cfi_offset 24, -40
	.cfi_offset 25, -44
	.cfi_offset 26, -48
	.cfi_offset 27, -52
	.loc 1 149 1
	sw	a2,4(sp)
	sw	a3,8(sp)
	.loc 1 150 5 is_stmt 1
.LVL1:
	.loc 1 151 5
	.loc 1 151 12 is_stmt 0
	or	s2,a4,s2
.LVL2:
	.loc 1 153 5 is_stmt 1
.LBB37:
.LBB38:
	.loc 1 305 5
	.loc 1 306 5
	.loc 1 306 17
	.loc 1 306 5 is_stmt 0
	beq	a0,zero,.L2
	slli	s0,a0,1
	neg	a6,a0
	.loc 1 310 26
	slli	s3,a4,16
	add	a2,a2,s0
.LVL3:
	mv	a7,a4
	mv	t6,a0
	mv	s7,a1
	slli	a0,a6,1
.LVL4:
	srli	s3,s3,16
	mv	a4,a2
.LVL5:
	.loc 1 306 12
	li	a1,0
.LVL6:
	.loc 1 306 5
	slli	a6,a6,2
.LVL7:
.L3:
	.loc 1 308 21 is_stmt 1
	add	t1,a4,a0
	sub	a3,a4,t1
	addi	ra,a3,-2
	srli	t0,ra,1
	addi	t2,t0,1
	andi	s1,t2,7
.LBE38:
.LBE37:
	.loc 1 149 1 is_stmt 0
	mv	a5,t1
	beq	s1,zero,.L4
	li	s4,1
	beq	s1,s4,.L262
	li	s5,2
	beq	s1,s5,.L263
	li	s6,3
	beq	s1,s6,.L264
	li	s8,4
	beq	s1,s8,.L265
	li	s9,5
	beq	s1,s9,.L266
	li	s10,6
	beq	s1,s10,.L267
.LVL8:
.LBB41:
.LBB39:
	.loc 1 310 13 is_stmt 1
	.loc 1 310 26 is_stmt 0
	lhu	s11,0(t1)
	.loc 1 308 9
	addi	a5,t1,2
	.loc 1 310 26
	add	t4,s3,s11
	sh	t4,0(t1)
	.loc 1 308 28 is_stmt 1
	.loc 1 308 21
.L267:
	.loc 1 310 13
	.loc 1 310 26 is_stmt 0
	lhu	t5,0(a5)
	.loc 1 308 9
	addi	a5,a5,2
	.loc 1 310 26
	add	t3,s3,t5
	sh	t3,-2(a5)
	.loc 1 308 28 is_stmt 1
	.loc 1 308 21
.L266:
	.loc 1 310 13
	.loc 1 310 26 is_stmt 0
	lhu	a3,0(a5)
	.loc 1 308 9
	addi	a5,a5,2
	.loc 1 310 26
	add	ra,s3,a3
	sh	ra,-2(a5)
	.loc 1 308 28 is_stmt 1
	.loc 1 308 21
.L265:
	.loc 1 310 13
	.loc 1 310 26 is_stmt 0
	lhu	t0,0(a5)
	.loc 1 308 9
	addi	a5,a5,2
	.loc 1 310 26
	add	t2,s3,t0
	sh	t2,-2(a5)
	.loc 1 308 28 is_stmt 1
	.loc 1 308 21
.L264:
	.loc 1 310 13
	.loc 1 310 26 is_stmt 0
	lhu	s1,0(a5)
	.loc 1 308 9
	addi	a5,a5,2
	.loc 1 310 26
	add	s4,s3,s1
	sh	s4,-2(a5)
	.loc 1 308 28 is_stmt 1
	.loc 1 308 21
.L263:
	.loc 1 310 13
	.loc 1 310 26 is_stmt 0
	lhu	s5,0(a5)
	.loc 1 308 9
	addi	a5,a5,2
	.loc 1 310 26
	add	s6,s3,s5
	sh	s6,-2(a5)
	.loc 1 308 28 is_stmt 1
	.loc 1 308 21
.L262:
	.loc 1 310 13
	.loc 1 310 26 is_stmt 0
	lhu	s8,0(a5)
	.loc 1 308 9
	addi	a5,a5,2
	.loc 1 310 26
	add	s9,s3,s8
	sh	s9,-2(a5)
	.loc 1 308 28 is_stmt 1
	.loc 1 308 21
	.loc 1 308 9 is_stmt 0
	beq	a5,a4,.L410
.L4:
	.loc 1 310 13 is_stmt 1
	.loc 1 310 26 is_stmt 0
	lhu	s10,0(a5)
	lhu	s11,2(a5)
	lhu	t2,4(a5)
	lhu	t0,6(a5)
	lhu	t5,8(a5)
	lhu	t4,10(a5)
	lhu	t3,12(a5)
	lhu	a3,14(a5)
	add	s1,s3,s10
	add	ra,s3,s11
	add	s4,s3,t2
	add	s5,s3,t0
	add	s6,s3,t5
	add	s8,s3,t4
	add	s9,s3,t3
	add	s10,s3,a3
	sh	s1,0(a5)
	.loc 1 308 28 is_stmt 1
	.loc 1 308 21
	.loc 1 310 13
	.loc 1 310 26 is_stmt 0
	sh	ra,2(a5)
	.loc 1 308 28 is_stmt 1
	.loc 1 308 21
	.loc 1 310 13
	.loc 1 310 26 is_stmt 0
	sh	s4,4(a5)
	.loc 1 308 28 is_stmt 1
	.loc 1 308 21
	.loc 1 310 13
	.loc 1 310 26 is_stmt 0
	sh	s5,6(a5)
	.loc 1 308 28 is_stmt 1
	.loc 1 308 21
	.loc 1 310 13
	.loc 1 310 26 is_stmt 0
	sh	s6,8(a5)
	.loc 1 308 28 is_stmt 1
	.loc 1 308 21
	.loc 1 310 13
	.loc 1 310 26 is_stmt 0
	sh	s8,10(a5)
	.loc 1 308 28 is_stmt 1
	.loc 1 308 21
	.loc 1 310 13
	.loc 1 310 26 is_stmt 0
	sh	s9,12(a5)
	.loc 1 308 28 is_stmt 1
	.loc 1 308 21
	.loc 1 310 13
	.loc 1 310 26 is_stmt 0
	sh	s10,14(a5)
	.loc 1 308 28 is_stmt 1
	.loc 1 308 21
	.loc 1 308 9 is_stmt 0
	addi	a5,a5,16
	bne	a5,a4,.L4
.L410:
	.loc 1 306 24 is_stmt 1
	.loc 1 306 25 is_stmt 0
	addi	s1,a1,1
.LVL9:
	.loc 1 306 17 is_stmt 1
	.loc 1 306 5 is_stmt 0
	sub	a4,t1,a6
	beq	t6,s1,.L5
	mv	a1,s1
	j	.L3
.L5:
.LBE39:
.LBE41:
.LBB42:
.LBB43:
	.loc 1 294 51
	li	t4,0
	li	t5,0
.LVL10:
.L7:
	.loc 1 292 21 is_stmt 1
	add	t1,a0,a2
	sub	a5,a2,t1
	addi	t6,a5,-2
	srli	s11,t6,1
	addi	t2,s11,1
	slli	t0,t4,2
	andi	a3,t2,7
	add	a5,t0,s7
.LBE43:
.LBE42:
.LBB46:
.LBB40:
	mv	a4,t1
	beq	a3,zero,.L6
	li	t3,1
	beq	a3,t3,.L268
	li	ra,2
	beq	a3,ra,.L269
	li	s4,3
	beq	a3,s4,.L270
	li	s5,4
	beq	a3,s5,.L271
	li	s6,5
	beq	a3,s6,.L272
	li	s8,6
	beq	a3,s8,.L273
.LVL11:
.LBE40:
.LBE46:
.LBB47:
.LBB44:
	.loc 1 294 13
	.loc 1 294 28 is_stmt 0
	lh	s9,0(t1)
	.loc 1 292 9
	addi	a4,t1,2
	addi	a5,a5,4
	.loc 1 294 49
	mul	s10,s9,a7
	.loc 1 294 26
	sw	s10,-4(a5)
	.loc 1 292 28 is_stmt 1
	.loc 1 292 21
.L273:
	.loc 1 294 13
	.loc 1 294 28 is_stmt 0
	lh	t6,0(a4)
	.loc 1 292 9
	addi	a5,a5,4
	addi	a4,a4,2
	.loc 1 294 49
	mul	s11,t6,a7
	.loc 1 294 26
	sw	s11,-4(a5)
	.loc 1 292 28 is_stmt 1
	.loc 1 292 21
.L272:
	.loc 1 294 13
	.loc 1 294 28 is_stmt 0
	lh	t2,0(a4)
	.loc 1 292 9
	addi	a5,a5,4
	addi	a4,a4,2
	.loc 1 294 49
	mul	t0,t2,a7
	.loc 1 294 26
	sw	t0,-4(a5)
	.loc 1 292 28 is_stmt 1
	.loc 1 292 21
.L271:
	.loc 1 294 13
	.loc 1 294 28 is_stmt 0
	lh	a3,0(a4)
	.loc 1 292 9
	addi	a5,a5,4
	addi	a4,a4,2
	.loc 1 294 49
	mul	t3,a3,a7
	.loc 1 294 26
	sw	t3,-4(a5)
	.loc 1 292 28 is_stmt 1
	.loc 1 292 21
.L270:
	.loc 1 294 13
	.loc 1 294 28 is_stmt 0
	lh	ra,0(a4)
	.loc 1 292 9
	addi	a5,a5,4
	addi	a4,a4,2
	.loc 1 294 49
	mul	s4,ra,a7
	.loc 1 294 26
	sw	s4,-4(a5)
	.loc 1 292 28 is_stmt 1
	.loc 1 292 21
.L269:
	.loc 1 294 13
	.loc 1 294 28 is_stmt 0
	lh	s5,0(a4)
	.loc 1 292 9
	addi	a5,a5,4
	addi	a4,a4,2
	.loc 1 294 49
	mul	s6,s5,a7
	.loc 1 294 26
	sw	s6,-4(a5)
	.loc 1 292 28 is_stmt 1
	.loc 1 292 21
.L268:
	.loc 1 294 13
	.loc 1 294 28 is_stmt 0
	lh	s8,0(a4)
	.loc 1 292 9
	addi	a5,a5,4
	addi	a4,a4,2
	.loc 1 294 49
	mul	s9,s8,a7
	.loc 1 294 26
	sw	s9,-4(a5)
	.loc 1 292 28 is_stmt 1
	.loc 1 292 21
	.loc 1 292 9 is_stmt 0
	beq	a4,a2,.L409
.L6:
	.loc 1 294 13 is_stmt 1
	.loc 1 294 28 is_stmt 0
	lh	s10,0(a4)
	lh	s11,2(a4)
	lh	ra,4(a4)
	lh	t2,6(a4)
	lh	t0,8(a4)
	lh	t6,10(a4)
	lh	t3,12(a4)
	lh	a3,14(a4)
	.loc 1 294 49
	mul	s5,s10,a7
	.loc 1 292 9
	addi	a4,a4,16
	addi	a5,a5,32
	.loc 1 294 49
	mul	s4,s11,a7
	.loc 1 294 26
	sw	s5,-32(a5)
	.loc 1 292 28 is_stmt 1
	.loc 1 292 21
	.loc 1 294 13
	.loc 1 294 49 is_stmt 0
	mul	s6,ra,a7
	.loc 1 294 26
	sw	s4,-28(a5)
	.loc 1 292 28 is_stmt 1
	.loc 1 292 21
	.loc 1 294 13
	.loc 1 294 49 is_stmt 0
	mul	s8,t2,a7
	.loc 1 294 26
	sw	s6,-24(a5)
	.loc 1 292 28 is_stmt 1
	.loc 1 292 21
	.loc 1 294 13
	.loc 1 294 49 is_stmt 0
	mul	s9,t0,a7
	.loc 1 294 26
	sw	s8,-20(a5)
	.loc 1 292 28 is_stmt 1
	.loc 1 292 21
	.loc 1 294 13
	.loc 1 294 49 is_stmt 0
	mul	s10,t6,a7
	.loc 1 294 26
	sw	s9,-16(a5)
	.loc 1 292 28 is_stmt 1
	.loc 1 292 21
	.loc 1 294 13
	.loc 1 294 49 is_stmt 0
	mul	s11,t3,a7
	.loc 1 294 26
	sw	s10,-12(a5)
	.loc 1 292 28 is_stmt 1
	.loc 1 292 21
	.loc 1 294 13
	.loc 1 294 49 is_stmt 0
	mul	ra,a3,a7
	.loc 1 294 26
	sw	s11,-8(a5)
	.loc 1 292 28 is_stmt 1
	.loc 1 292 21
	.loc 1 294 13
	.loc 1 294 26 is_stmt 0
	sw	ra,-4(a5)
	.loc 1 292 28 is_stmt 1
	.loc 1 292 21
	.loc 1 292 9 is_stmt 0
	bne	a4,a2,.L6
.L409:
	.loc 1 290 24 is_stmt 1
	.loc 1 290 25 is_stmt 0
	addi	a4,t5,1
.LVL12:
	.loc 1 290 17 is_stmt 1
	.loc 1 290 5 is_stmt 0
	add	t4,t4,s1
	sub	a2,t1,a6
	beq	t5,a1,.L418
	mv	t5,a4
	j	.L7
.L418:
	slli	t5,s1,2
	add	s6,s7,t5
	neg	t1,s1
	sw	t5,12(sp)
.LBE44:
.LBE47:
.LBB48:
.LBB49:
	.loc 1 267 21
	mv	a3,s6
	li	a0,0
	li	t4,0
	li	t3,0
	li	a7,0
	.loc 1 261 5
	slli	t1,t1,3
.LVL13:
.L8:
	.loc 1 263 21 is_stmt 1
	add	t2,a6,a3
	sub	a5,a3,t2
	addi	t0,a5,-4
	srli	t6,t0,2
	addi	s5,t6,1
	andi	s4,s5,7
	.loc 1 261 5 is_stmt 0
	mv	a2,t2
	beq	s4,zero,.L11
	li	s8,1
	beq	s4,s8,.L274
	li	s9,2
	beq	s4,s9,.L275
	li	s10,3
	beq	s4,s10,.L276
	li	s11,4
	beq	s4,s11,.L277
	li	ra,5
	beq	s4,ra,.L278
	li	a4,6
	beq	s4,a4,.L279
.LVL14:
	.loc 1 265 13 is_stmt 1
	mv	a2,t4
.LVL15:
	.loc 1 265 17 is_stmt 0
	lw	t4,0(t2)
.LVL16:
	.loc 1 266 13 is_stmt 1
	.loc 1 269 21 is_stmt 0
	slli	a0,a0,16
	srli	t5,a0,16
	.loc 1 266 17
	add	t3,t3,t4
.LVL17:
	.loc 1 267 13 is_stmt 1
	.loc 1 267 16 is_stmt 0
	ble	t3,s2,.L381
	.loc 1 269 17 is_stmt 1
	.loc 1 269 21 is_stmt 0
	addi	t3,t5,10
.LVL18:
	slli	s5,t3,16
	srai	a0,s5,16
	.loc 1 270 17 is_stmt 1
.LVL19:
	.loc 1 270 21 is_stmt 0
	li	t3,0
.LVL20:
.L382:
	.loc 1 276 13 is_stmt 1
	.loc 1 263 28
	.loc 1 263 21
	.loc 1 263 9 is_stmt 0
	addi	a2,t2,4
.LVL21:
.L279:
	.loc 1 265 13 is_stmt 1
	mv	s4,t4
.LVL22:
	.loc 1 265 17 is_stmt 0
	lw	t4,0(a2)
.LVL23:
	.loc 1 266 13 is_stmt 1
	.loc 1 269 21 is_stmt 0
	slli	s8,a0,16
	srli	s9,s8,16
	.loc 1 266 17
	add	t3,t3,t4
.LVL24:
	.loc 1 267 13 is_stmt 1
	.loc 1 267 16 is_stmt 0
	ble	t3,s2,.L383
	.loc 1 269 17 is_stmt 1
	.loc 1 269 21 is_stmt 0
	addi	a4,s9,10
.LVL25:
	slli	a0,a4,16
	srai	a0,a0,16
	.loc 1 270 17 is_stmt 1
.LVL26:
	.loc 1 270 21 is_stmt 0
	li	t3,0
.LVL27:
.L384:
	.loc 1 276 13 is_stmt 1
	.loc 1 263 28
	.loc 1 263 21
	.loc 1 263 9 is_stmt 0
	addi	a2,a2,4
.LVL28:
.L278:
	.loc 1 265 13 is_stmt 1
	mv	t5,t4
.LVL29:
	.loc 1 265 17 is_stmt 0
	lw	t4,0(a2)
.LVL30:
	.loc 1 266 13 is_stmt 1
	.loc 1 269 21 is_stmt 0
	slli	a5,a0,16
	srli	t0,a5,16
	.loc 1 266 17
	add	t3,t3,t4
.LVL31:
	.loc 1 267 13 is_stmt 1
	.loc 1 267 16 is_stmt 0
	ble	t3,s2,.L385
	.loc 1 269 17 is_stmt 1
	.loc 1 269 21 is_stmt 0
	addi	t3,t0,10
.LVL32:
	slli	s8,t3,16
	srai	a0,s8,16
	.loc 1 270 17 is_stmt 1
.LVL33:
	.loc 1 270 21 is_stmt 0
	li	t3,0
.LVL34:
.L386:
	.loc 1 276 13 is_stmt 1
	.loc 1 263 28
	.loc 1 263 21
	.loc 1 263 9 is_stmt 0
	addi	a2,a2,4
.LVL35:
.L277:
	.loc 1 265 13 is_stmt 1
	mv	s9,t4
.LVL36:
	.loc 1 265 17 is_stmt 0
	lw	t4,0(a2)
.LVL37:
	.loc 1 266 13 is_stmt 1
	.loc 1 269 21 is_stmt 0
	slli	s10,a0,16
	srli	s11,s10,16
	.loc 1 266 17
	add	t3,t3,t4
.LVL38:
	.loc 1 267 13 is_stmt 1
	.loc 1 267 16 is_stmt 0
	ble	t3,s2,.L387
	.loc 1 269 17 is_stmt 1
	.loc 1 269 21 is_stmt 0
	addi	t5,s11,10
.LVL39:
	slli	a5,t5,16
	srai	a0,a5,16
	.loc 1 270 17 is_stmt 1
.LVL40:
	.loc 1 270 21 is_stmt 0
	li	t3,0
.LVL41:
.L388:
	.loc 1 276 13 is_stmt 1
	.loc 1 263 28
	.loc 1 263 21
	.loc 1 263 9 is_stmt 0
	addi	a2,a2,4
.LVL42:
.L276:
	.loc 1 265 13 is_stmt 1
	mv	t0,t4
.LVL43:
	.loc 1 265 17 is_stmt 0
	lw	t4,0(a2)
.LVL44:
	.loc 1 266 13 is_stmt 1
	.loc 1 269 21 is_stmt 0
	slli	t6,a0,16
	srli	s5,t6,16
	.loc 1 266 17
	add	t3,t3,t4
.LVL45:
	.loc 1 267 13 is_stmt 1
	.loc 1 267 16 is_stmt 0
	ble	t3,s2,.L389
	.loc 1 269 17 is_stmt 1
	.loc 1 269 21 is_stmt 0
	addi	t3,s5,10
.LVL46:
	slli	s10,t3,16
	srai	a0,s10,16
	.loc 1 270 17 is_stmt 1
.LVL47:
	.loc 1 270 21 is_stmt 0
	li	t3,0
.LVL48:
.L390:
	.loc 1 276 13 is_stmt 1
	.loc 1 263 28
	.loc 1 263 21
	.loc 1 263 9 is_stmt 0
	addi	a2,a2,4
.LVL49:
.L275:
	.loc 1 265 13 is_stmt 1
	mv	s11,t4
.LVL50:
	.loc 1 265 17 is_stmt 0
	lw	t4,0(a2)
.LVL51:
	.loc 1 266 13 is_stmt 1
	.loc 1 269 21 is_stmt 0
	slli	ra,a0,16
	srli	a4,ra,16
	.loc 1 266 17
	add	t3,t3,t4
.LVL52:
	.loc 1 267 13 is_stmt 1
	.loc 1 267 16 is_stmt 0
	ble	t3,s2,.L391
	.loc 1 269 17 is_stmt 1
	.loc 1 269 21 is_stmt 0
	addi	t0,a4,10
.LVL53:
	slli	t6,t0,16
	srai	a0,t6,16
	.loc 1 270 17 is_stmt 1
.LVL54:
	.loc 1 270 21 is_stmt 0
	li	t3,0
.LVL55:
.L392:
	.loc 1 276 13 is_stmt 1
	.loc 1 263 28
	.loc 1 263 21
	.loc 1 263 9 is_stmt 0
	addi	a2,a2,4
.LVL56:
.L274:
	.loc 1 265 13 is_stmt 1
	mv	s5,t4
.LVL57:
	.loc 1 265 17 is_stmt 0
	lw	t4,0(a2)
.LVL58:
	.loc 1 266 13 is_stmt 1
	.loc 1 269 21 is_stmt 0
	slli	s4,a0,16
	srli	s8,s4,16
	.loc 1 266 17
	add	t3,t3,t4
.LVL59:
	.loc 1 267 13 is_stmt 1
	.loc 1 267 16 is_stmt 0
	ble	t3,s2,.L393
	.loc 1 269 17 is_stmt 1
	.loc 1 269 21 is_stmt 0
	addi	t3,s8,10
.LVL60:
	slli	ra,t3,16
	srai	a0,ra,16
	.loc 1 270 17 is_stmt 1
.LVL61:
	.loc 1 270 21 is_stmt 0
	li	t3,0
.LVL62:
.L394:
	.loc 1 276 13 is_stmt 1
	.loc 1 263 28
	.loc 1 263 21
	.loc 1 263 9 is_stmt 0
	addi	a2,a2,4
.LVL63:
	bne	a2,a3,.L11
.L395:
	.loc 1 261 24 is_stmt 1
	.loc 1 261 25 is_stmt 0
	addi	t6,a7,1
.LVL64:
	.loc 1 261 17 is_stmt 1
	.loc 1 261 5 is_stmt 0
	sub	a3,t2,t1
	beq	a1,a7,.L419
	mv	a7,t6
	j	.L8
.LVL65:
.L421:
	.loc 1 274 17 is_stmt 1
	.loc 1 274 41 is_stmt 0
	sgt	t4,a4,t4
	.loc 1 265 17
	lw	s9,4(a2)
	.loc 1 274 21
	add	a5,t5,t4
	slli	t0,a5,16
	srai	s4,t0,16
	.loc 1 276 13 is_stmt 1
	.loc 1 263 28
	.loc 1 263 21
	.loc 1 269 21 is_stmt 0
	slli	s10,s4,16
	.loc 1 266 17
	add	t3,s8,s9
	.loc 1 263 9
	addi	a2,a2,4
	.loc 1 265 13 is_stmt 1
	.loc 1 266 13
	.loc 1 267 13
	.loc 1 269 21 is_stmt 0
	srli	s11,s10,16
	.loc 1 267 16
	ble	t3,s2,.L420
.L206:
	.loc 1 269 17 is_stmt 1
	.loc 1 265 17 is_stmt 0
	lw	t0,4(a2)
	.loc 1 269 21
	addi	t4,s11,10
	slli	a5,t4,16
	srai	t5,a5,16
	.loc 1 270 17 is_stmt 1
.LVL66:
	.loc 1 270 21 is_stmt 0
	li	t3,0
.LVL67:
	.loc 1 276 13 is_stmt 1
	.loc 1 263 28
	.loc 1 263 21
	.loc 1 265 13
	.loc 1 266 13
	.loc 1 269 21 is_stmt 0
	slli	t6,t5,16
	.loc 1 266 17
	add	s4,t3,t0
	.loc 1 267 13 is_stmt 1
	.loc 1 269 21 is_stmt 0
	srli	s5,t6,16
	.loc 1 267 16
	ble	s4,s2,.L397
.L422:
	.loc 1 269 17 is_stmt 1
	.loc 1 265 17 is_stmt 0
	lw	a4,8(a2)
	.loc 1 269 21
	addi	t3,s5,10
	slli	ra,t3,16
	srai	s11,ra,16
	.loc 1 270 17 is_stmt 1
.LVL68:
	.loc 1 270 21 is_stmt 0
	li	s4,0
.LVL69:
	.loc 1 276 13 is_stmt 1
	.loc 1 263 28
	.loc 1 263 21
	.loc 1 265 13
	.loc 1 266 13
	.loc 1 269 21 is_stmt 0
	slli	a0,s11,16
	.loc 1 266 17
	add	t6,s4,a4
	.loc 1 267 13 is_stmt 1
	.loc 1 269 21 is_stmt 0
	srli	t5,a0,16
	.loc 1 267 16
	ble	t6,s2,.L399
.L423:
	.loc 1 269 17 is_stmt 1
	.loc 1 265 17 is_stmt 0
	lw	s9,12(a2)
	.loc 1 269 21
	addi	s4,t5,10
	slli	s8,s4,16
	srai	s5,s8,16
	.loc 1 270 17 is_stmt 1
.LVL70:
	.loc 1 270 21 is_stmt 0
	li	t6,0
.LVL71:
	.loc 1 276 13 is_stmt 1
	.loc 1 263 28
	.loc 1 263 21
	.loc 1 265 13
	.loc 1 266 13
	.loc 1 269 21 is_stmt 0
	slli	s10,s5,16
	.loc 1 266 17
	add	ra,t6,s9
	.loc 1 267 13 is_stmt 1
	.loc 1 269 21 is_stmt 0
	srli	s11,s10,16
	.loc 1 267 16
	ble	ra,s2,.L401
.L424:
	.loc 1 269 17 is_stmt 1
	.loc 1 265 17 is_stmt 0
	lw	t0,16(a2)
	.loc 1 269 21
	addi	t6,s11,10
	slli	t4,t6,16
	srai	t5,t4,16
	.loc 1 270 17 is_stmt 1
.LVL72:
	.loc 1 270 21 is_stmt 0
	li	ra,0
.LVL73:
	.loc 1 276 13 is_stmt 1
	.loc 1 263 28
	.loc 1 263 21
	.loc 1 265 13
	.loc 1 266 13
	.loc 1 269 21 is_stmt 0
	slli	a5,t5,16
	.loc 1 266 17
	add	s4,ra,t0
	.loc 1 267 13 is_stmt 1
	.loc 1 269 21 is_stmt 0
	srli	s5,a5,16
	.loc 1 267 16
	ble	s4,s2,.L403
.L425:
	.loc 1 269 17 is_stmt 1
	.loc 1 265 17 is_stmt 0
	lw	a4,20(a2)
	.loc 1 269 21
	addi	ra,s5,10
	slli	t3,ra,16
	srai	s11,t3,16
	.loc 1 270 17 is_stmt 1
.LVL74:
	.loc 1 270 21 is_stmt 0
	li	s4,0
.LVL75:
	.loc 1 276 13 is_stmt 1
	.loc 1 263 28
	.loc 1 263 21
	.loc 1 265 13
	.loc 1 266 13
	.loc 1 269 21 is_stmt 0
	slli	a0,s11,16
	.loc 1 266 17
	add	t6,s4,a4
	.loc 1 267 13 is_stmt 1
	.loc 1 269 21 is_stmt 0
	srli	t5,a0,16
	.loc 1 267 16
	ble	t6,s2,.L405
.L426:
	.loc 1 269 17 is_stmt 1
	.loc 1 265 17 is_stmt 0
	lw	t4,24(a2)
	.loc 1 269 21
	addi	s4,t5,10
	slli	s8,s4,16
	srai	s5,s8,16
	.loc 1 270 17 is_stmt 1
.LVL76:
	.loc 1 270 21 is_stmt 0
	li	t6,0
.LVL77:
	.loc 1 276 13 is_stmt 1
	.loc 1 263 28
	.loc 1 263 21
	.loc 1 265 13
	.loc 1 266 13
	.loc 1 269 21 is_stmt 0
	slli	s9,s5,16
	.loc 1 266 17
	add	t3,t6,t4
	.loc 1 267 13 is_stmt 1
	.loc 1 269 21 is_stmt 0
	srli	s10,s9,16
	.loc 1 267 16
	ble	t3,s2,.L407
.LVL78:
.L427:
	.loc 1 269 17 is_stmt 1
	.loc 1 269 21 is_stmt 0
	addi	a0,s10,10
	slli	t5,a0,16
	srai	a0,t5,16
.LVL79:
	.loc 1 270 17 is_stmt 1
	.loc 1 270 21 is_stmt 0
	li	t3,0
.LVL80:
.L408:
	.loc 1 276 13 is_stmt 1
	.loc 1 263 28
	.loc 1 263 21
	.loc 1 263 9 is_stmt 0
	addi	a2,a2,28
	beq	a2,a3,.L395
.LVL81:
.L11:
	.loc 1 265 13 is_stmt 1
	.loc 1 265 17 is_stmt 0
	lw	a4,0(a2)
	.loc 1 266 13 is_stmt 1
	.loc 1 269 21 is_stmt 0
	slli	a0,a0,16
	srli	t5,a0,16
	.loc 1 266 17
	add	s8,t3,a4
	.loc 1 267 13 is_stmt 1
	.loc 1 267 16 is_stmt 0
	ble	s8,s2,.L421
	.loc 1 269 17 is_stmt 1
	.loc 1 265 17 is_stmt 0
	lw	s9,4(a2)
	.loc 1 269 21
	addi	t6,t5,10
	slli	s5,t6,16
	srai	s4,s5,16
	.loc 1 270 17 is_stmt 1
.LVL82:
	.loc 1 270 21 is_stmt 0
	li	s8,0
.LVL83:
	.loc 1 276 13 is_stmt 1
	.loc 1 263 28
	.loc 1 263 21
	.loc 1 269 21 is_stmt 0
	slli	s10,s4,16
	.loc 1 266 17
	add	t3,s8,s9
	.loc 1 263 9
	addi	a2,a2,4
	.loc 1 265 13 is_stmt 1
	.loc 1 266 13
	.loc 1 267 13
	.loc 1 269 21 is_stmt 0
	srli	s11,s10,16
	.loc 1 267 16
	bgt	t3,s2,.L206
.L420:
	.loc 1 274 17 is_stmt 1
	.loc 1 274 41 is_stmt 0
	sgt	ra,s9,a4
	.loc 1 265 17
	lw	t0,4(a2)
	.loc 1 274 21
	add	a4,s11,ra
	slli	a0,a4,16
	srai	t5,a0,16
	.loc 1 276 13 is_stmt 1
	.loc 1 263 28
	.loc 1 263 21
	.loc 1 265 13
	.loc 1 266 13
	.loc 1 269 21 is_stmt 0
	slli	t6,t5,16
	.loc 1 266 17
	add	s4,t3,t0
	.loc 1 267 13 is_stmt 1
	.loc 1 269 21 is_stmt 0
	srli	s5,t6,16
	.loc 1 267 16
	bgt	s4,s2,.L422
.L397:
	.loc 1 274 17 is_stmt 1
	.loc 1 274 41 is_stmt 0
	sgt	s8,t0,s9
	.loc 1 265 17
	lw	a4,8(a2)
	.loc 1 274 21
	add	s9,s5,s8
	slli	s10,s9,16
	srai	s11,s10,16
	.loc 1 276 13 is_stmt 1
	.loc 1 263 28
	.loc 1 263 21
	.loc 1 265 13
	.loc 1 266 13
	.loc 1 269 21 is_stmt 0
	slli	a0,s11,16
	.loc 1 266 17
	add	t6,s4,a4
	.loc 1 267 13 is_stmt 1
	.loc 1 269 21 is_stmt 0
	srli	t5,a0,16
	.loc 1 267 16
	bgt	t6,s2,.L423
.L399:
	.loc 1 274 17 is_stmt 1
	.loc 1 274 41 is_stmt 0
	sgt	t4,a4,t0
	.loc 1 265 17
	lw	s9,12(a2)
	.loc 1 274 21
	add	a5,t5,t4
	slli	t0,a5,16
	srai	s5,t0,16
	.loc 1 276 13 is_stmt 1
	.loc 1 263 28
	.loc 1 263 21
	.loc 1 265 13
	.loc 1 266 13
	.loc 1 269 21 is_stmt 0
	slli	s10,s5,16
	.loc 1 266 17
	add	ra,t6,s9
	.loc 1 267 13 is_stmt 1
	.loc 1 269 21 is_stmt 0
	srli	s11,s10,16
	.loc 1 267 16
	bgt	ra,s2,.L424
.L401:
	.loc 1 274 17 is_stmt 1
	.loc 1 274 41 is_stmt 0
	sgt	t3,s9,a4
	.loc 1 265 17
	lw	t0,16(a2)
	.loc 1 274 21
	add	a4,s11,t3
	slli	a0,a4,16
	srai	t5,a0,16
	.loc 1 276 13 is_stmt 1
	.loc 1 263 28
	.loc 1 263 21
	.loc 1 265 13
	.loc 1 266 13
	.loc 1 269 21 is_stmt 0
	slli	a5,t5,16
	.loc 1 266 17
	add	s4,ra,t0
	.loc 1 267 13 is_stmt 1
	.loc 1 269 21 is_stmt 0
	srli	s5,a5,16
	.loc 1 267 16
	bgt	s4,s2,.L425
.L403:
	.loc 1 274 17 is_stmt 1
	.loc 1 274 41 is_stmt 0
	sgt	s8,t0,s9
	.loc 1 265 17
	lw	a4,20(a2)
	.loc 1 274 21
	add	s9,s5,s8
	slli	s10,s9,16
	srai	s11,s10,16
	.loc 1 276 13 is_stmt 1
	.loc 1 263 28
	.loc 1 263 21
	.loc 1 265 13
	.loc 1 266 13
	.loc 1 269 21 is_stmt 0
	slli	a0,s11,16
	.loc 1 266 17
	add	t6,s4,a4
	.loc 1 267 13 is_stmt 1
	.loc 1 269 21 is_stmt 0
	srli	t5,a0,16
	.loc 1 267 16
	bgt	t6,s2,.L426
.L405:
	.loc 1 274 17 is_stmt 1
	.loc 1 274 41 is_stmt 0
	sgt	t4,a4,t0
	.loc 1 274 21
	add	t0,t5,t4
	.loc 1 265 17
	lw	t4,24(a2)
	.loc 1 274 21
	slli	a5,t0,16
	srai	s5,a5,16
	.loc 1 276 13 is_stmt 1
	.loc 1 263 28
	.loc 1 263 21
	.loc 1 265 13
.LVL84:
	.loc 1 266 13
	.loc 1 269 21 is_stmt 0
	slli	s9,s5,16
	.loc 1 266 17
	add	t3,t6,t4
	.loc 1 267 13 is_stmt 1
	.loc 1 269 21 is_stmt 0
	srli	s10,s9,16
	.loc 1 267 16
	bgt	t3,s2,.L427
.LVL85:
.L407:
	.loc 1 274 17 is_stmt 1
	.loc 1 274 41 is_stmt 0
	sgt	s11,t4,a4
	.loc 1 274 21
	add	ra,s10,s11
	slli	a4,ra,16
	srai	a0,a4,16
	j	.L408
.L393:
	.loc 1 274 17 is_stmt 1
	.loc 1 274 41 is_stmt 0
	sgt	s9,t4,s5
	.loc 1 274 21
	add	s10,s8,s9
.LVL86:
	slli	s11,s10,16
	srai	a0,s11,16
	j	.L394
.LVL87:
.L391:
	.loc 1 274 17 is_stmt 1
	.loc 1 274 41 is_stmt 0
	sgt	a0,t4,s11
	.loc 1 274 21
	add	t5,a4,a0
.LVL88:
	slli	a5,t5,16
	srai	a0,a5,16
	j	.L392
.LVL89:
.L389:
	.loc 1 274 17 is_stmt 1
	.loc 1 274 41 is_stmt 0
	sgt	s4,t4,t0
	.loc 1 274 21
	add	s8,s5,s4
.LVL90:
	slli	s9,s8,16
	srai	a0,s9,16
	j	.L390
.LVL91:
.L387:
	.loc 1 274 17 is_stmt 1
	.loc 1 274 41 is_stmt 0
	sgt	ra,t4,s9
	.loc 1 274 21
	add	a4,s11,ra
.LVL92:
	slli	a0,a4,16
	srai	a0,a0,16
	j	.L388
.LVL93:
.L385:
	.loc 1 274 17 is_stmt 1
	.loc 1 274 41 is_stmt 0
	sgt	t6,t4,t5
	.loc 1 274 21
	add	s5,t0,t6
.LVL94:
	slli	s4,s5,16
	srai	a0,s4,16
	j	.L386
.LVL95:
.L383:
	.loc 1 274 17 is_stmt 1
	.loc 1 274 41 is_stmt 0
	sgt	s10,t4,s4
	.loc 1 274 21
	add	s11,s9,s10
.LVL96:
	slli	ra,s11,16
	srai	a0,ra,16
	j	.L384
.LVL97:
.L419:
	.loc 1 279 5 is_stmt 1
.LBE49:
.LBE48:
	.loc 1 158 11 is_stmt 0
	li	a1,0
	call	crc16
.LVL98:
	.loc 1 162 5 is_stmt 1
.LBB52:
.LBB53:
	.loc 1 323 5
	.loc 1 324 5
	.loc 1 324 17
	lw	t2,8(sp)
	lw	s11,4(sp)
.LBE53:
.LBE52:
	.loc 1 158 11 is_stmt 0
	mv	a1,s7
	add	t0,t2,s0
	li	t6,0
	sw	s2,16(sp)
	sw	a0,20(sp)
.LVL99:
.L14:
.LBB57:
.LBB54:
	.loc 1 326 9 is_stmt 1
	.loc 1 327 9
	.loc 1 327 21
	sub	a5,t0,t2
	addi	s5,a5,-2
	srli	s4,s5,1
	addi	s8,s4,1
	slli	t4,t6,1
	andi	s9,s8,7
	add	a3,s11,t4
.LBE54:
.LBE57:
	.loc 1 158 11 is_stmt 0
	mv	a2,t2
	li	a5,0
	beq	s9,zero,.L13
	li	s10,1
	beq	s9,s10,.L280
	li	t3,2
	beq	s9,t3,.L281
	li	ra,3
	beq	s9,ra,.L282
	li	a4,4
	beq	s9,a4,.L283
	li	a0,5
	beq	s9,a0,.L284
	li	t5,6
	beq	s9,t5,.L285
.LVL100:
.LBB58:
.LBB55:
	.loc 1 329 13 is_stmt 1
	.loc 1 329 21 is_stmt 0
	lh	t1,0(a3)
	.loc 1 329 44
	lh	a6,0(t2)
	.loc 1 327 9
	addi	a3,a3,2
	addi	a2,t2,2
	.loc 1 329 42
	mul	a5,t1,a6
	.loc 1 327 28 is_stmt 1
	.loc 1 327 21
.L285:
	.loc 1 329 13
	.loc 1 329 21 is_stmt 0
	lh	s2,0(a3)
	.loc 1 329 44
	lh	a7,0(a2)
	.loc 1 327 9
	addi	a3,a3,2
	addi	a2,a2,2
	.loc 1 329 42
	mul	s5,s2,a7
	.loc 1 329 18
	add	a5,a5,s5
	.loc 1 327 28 is_stmt 1
	.loc 1 327 21
.L284:
	.loc 1 329 13
	.loc 1 329 21 is_stmt 0
	lh	s4,0(a3)
	.loc 1 329 44
	lh	s8,0(a2)
	.loc 1 327 9
	addi	a3,a3,2
	addi	a2,a2,2
	.loc 1 329 42
	mul	t4,s4,s8
	.loc 1 329 18
	add	a5,a5,t4
	.loc 1 327 28 is_stmt 1
	.loc 1 327 21
.L283:
	.loc 1 329 13
	.loc 1 329 21 is_stmt 0
	lh	s9,0(a3)
	.loc 1 329 44
	lh	s10,0(a2)
	.loc 1 327 9
	addi	a3,a3,2
	addi	a2,a2,2
	.loc 1 329 42
	mul	t3,s9,s10
	.loc 1 329 18
	add	a5,a5,t3
	.loc 1 327 28 is_stmt 1
	.loc 1 327 21
.L282:
	.loc 1 329 13
	.loc 1 329 21 is_stmt 0
	lh	ra,0(a3)
	.loc 1 329 44
	lh	a4,0(a2)
	.loc 1 327 9
	addi	a3,a3,2
	addi	a2,a2,2
	.loc 1 329 42
	mul	a0,ra,a4
	.loc 1 329 18
	add	a5,a5,a0
	.loc 1 327 28 is_stmt 1
	.loc 1 327 21
.L281:
	.loc 1 329 13
	.loc 1 329 21 is_stmt 0
	lh	t5,0(a3)
	.loc 1 329 44
	lh	t1,0(a2)
	.loc 1 327 9
	addi	a3,a3,2
	addi	a2,a2,2
	.loc 1 329 42
	mul	a6,t5,t1
	.loc 1 329 18
	add	a5,a5,a6
	.loc 1 327 28 is_stmt 1
	.loc 1 327 21
.L280:
	.loc 1 329 13
	.loc 1 329 21 is_stmt 0
	lh	s2,0(a3)
	.loc 1 329 44
	lh	a7,0(a2)
	.loc 1 327 9
	addi	a2,a2,2
	addi	a3,a3,2
	.loc 1 329 42
	mul	s5,s2,a7
	.loc 1 329 18
	add	a5,a5,s5
	.loc 1 327 28 is_stmt 1
	.loc 1 327 21
	.loc 1 327 9 is_stmt 0
	beq	t0,a2,.L380
.L13:
	.loc 1 329 13 is_stmt 1
	.loc 1 329 21 is_stmt 0
	lh	s4,0(a3)
	.loc 1 329 44
	lh	t3,0(a2)
	lh	s5,2(a2)
	.loc 1 329 21
	lh	s10,2(a3)
	.loc 1 329 42
	mul	a4,s4,t3
	.loc 1 329 21
	lh	ra,4(a3)
	.loc 1 329 44
	lh	s9,4(a2)
	.loc 1 329 21
	lh	t4,6(a3)
	.loc 1 329 44
	lh	s8,6(a2)
	.loc 1 329 21
	lh	t1,8(a3)
	.loc 1 329 44
	lh	s4,8(a2)
	.loc 1 329 21
	lh	a7,10(a3)
	.loc 1 329 44
	lh	s2,10(a2)
	.loc 1 329 21
	lh	a6,12(a3)
	.loc 1 329 42
	mul	s10,s10,s5
	.loc 1 329 44
	lh	t5,12(a2)
	.loc 1 329 21
	lh	a0,14(a3)
	.loc 1 329 44
	lh	t3,14(a2)
	.loc 1 329 18
	add	a5,a5,a4
	.loc 1 327 28 is_stmt 1
	.loc 1 327 21
	.loc 1 329 13
	.loc 1 327 9 is_stmt 0
	addi	a2,a2,16
	addi	a3,a3,16
	.loc 1 329 42
	mul	s5,ra,s9
	.loc 1 329 18
	add	ra,a5,s10
	.loc 1 327 28 is_stmt 1
	.loc 1 327 21
	.loc 1 329 13
	.loc 1 329 42 is_stmt 0
	mul	s9,t4,s8
	.loc 1 329 18
	add	t4,ra,s5
	.loc 1 327 28 is_stmt 1
	.loc 1 327 21
	.loc 1 329 13
	.loc 1 329 42 is_stmt 0
	mul	s8,t1,s4
	.loc 1 329 18
	add	t1,t4,s9
	.loc 1 327 28 is_stmt 1
	.loc 1 327 21
	.loc 1 329 13
	.loc 1 329 42 is_stmt 0
	mul	a4,a7,s2
	.loc 1 329 18
	add	s4,t1,s8
	.loc 1 327 28 is_stmt 1
	.loc 1 327 21
	.loc 1 329 13
	.loc 1 329 42 is_stmt 0
	mul	a7,a6,t5
	.loc 1 329 18
	add	s2,s4,a4
	.loc 1 327 28 is_stmt 1
	.loc 1 327 21
	.loc 1 329 13
	.loc 1 329 42 is_stmt 0
	mul	a6,a0,t3
	.loc 1 329 18
	add	t5,s2,a7
	.loc 1 327 28 is_stmt 1
	.loc 1 327 21
	.loc 1 329 13
	.loc 1 329 18 is_stmt 0
	add	a5,t5,a6
	.loc 1 327 28 is_stmt 1
	.loc 1 327 21
	.loc 1 327 9 is_stmt 0
	bne	t0,a2,.L13
.L380:
	sw	a5,0(a1)
	.loc 1 324 24 is_stmt 1
	.loc 1 324 17
	.loc 1 324 5 is_stmt 0
	addi	a1,a1,4
	add	t6,t6,s1
	bne	a1,s6,.L14
	lw	s2,16(sp)
	lw	s11,20(sp)
	li	a3,0
	li	a0,0
	li	a7,0
	li	a4,0
	li	a2,0
.LVL101:
.L18:
.LBE55:
.LBE58:
.LBB59:
.LBB60:
	.loc 1 263 21 is_stmt 1
	slli	s6,a3,2
	add	t2,s7,s6
	mv	t0,a7
	.loc 1 265 17 is_stmt 0
	lw	a7,0(t2)
	addi	a1,s1,-1
	.loc 1 269 21
	slli	a0,a0,16
	.loc 1 266 17
	add	a4,a4,a7
	andi	t6,a1,3
	.loc 1 265 13 is_stmt 1
.LVL102:
	.loc 1 266 13
	.loc 1 267 13
	.loc 1 269 21 is_stmt 0
	srli	t3,a0,16
	.loc 1 267 16
	ble	a4,s2,.L428
	.loc 1 269 17 is_stmt 1
	.loc 1 269 21 is_stmt 0
	addi	ra,t3,10
.LVL103:
	slli	s9,ra,16
	srai	a0,s9,16
	.loc 1 270 17 is_stmt 1
.LVL104:
	.loc 1 270 21 is_stmt 0
	li	a4,0
.LVL105:
.L367:
	.loc 1 276 13 is_stmt 1
	.loc 1 263 28
	.loc 1 263 29 is_stmt 0
	li	a6,1
	.loc 1 263 21 is_stmt 1
	.loc 1 263 9 is_stmt 0
	addi	a1,t2,4
	bleu	s1,a6,.L368
	beq	t6,zero,.L17
	beq	t6,a6,.L310
	li	t4,2
	beq	t6,t4,.L311
	.loc 1 265 13 is_stmt 1
	mv	s8,a7
.LVL106:
	.loc 1 265 17 is_stmt 0
	lw	a7,4(t2)
	.loc 1 266 13 is_stmt 1
.LVL107:
	.loc 1 269 21 is_stmt 0
	slli	t1,a0,16
	srli	s4,t1,16
	.loc 1 266 17
	add	a4,a4,a7
.LVL108:
	.loc 1 267 13 is_stmt 1
	.loc 1 267 16 is_stmt 0
	ble	a4,s2,.L369
	.loc 1 269 17 is_stmt 1
	.loc 1 269 21 is_stmt 0
	addi	a4,s4,10
.LVL109:
	slli	t0,a4,16
	srai	a0,t0,16
	.loc 1 270 17 is_stmt 1
.LVL110:
	.loc 1 270 21 is_stmt 0
	li	a4,0
.LVL111:
.L370:
	.loc 1 276 13 is_stmt 1
	.loc 1 263 28
	.loc 1 263 29 is_stmt 0
	addi	a6,a6,1
	.loc 1 263 21 is_stmt 1
	.loc 1 263 9 is_stmt 0
	addi	a1,a1,4
.LVL112:
.L311:
	.loc 1 265 13 is_stmt 1
	mv	t6,a7
.LVL113:
	.loc 1 265 17 is_stmt 0
	lw	a7,0(a1)
	.loc 1 266 13 is_stmt 1
.LVL114:
	.loc 1 269 21 is_stmt 0
	slli	a0,a0,16
	srli	t3,a0,16
	.loc 1 266 17
	add	a4,a4,a7
.LVL115:
	.loc 1 267 13 is_stmt 1
	.loc 1 267 16 is_stmt 0
	ble	a4,s2,.L371
	.loc 1 269 17 is_stmt 1
	.loc 1 269 21 is_stmt 0
	addi	ra,t3,10
.LVL116:
	slli	s9,ra,16
	srai	a0,s9,16
	.loc 1 270 17 is_stmt 1
.LVL117:
	.loc 1 270 21 is_stmt 0
	li	a4,0
.LVL118:
.L372:
	.loc 1 276 13 is_stmt 1
	.loc 1 263 28
	.loc 1 263 29 is_stmt 0
	addi	a6,a6,1
	.loc 1 263 21 is_stmt 1
	.loc 1 263 9 is_stmt 0
	addi	a1,a1,4
.LVL119:
.L310:
	.loc 1 265 13 is_stmt 1
	mv	t4,a7
.LVL120:
	.loc 1 265 17 is_stmt 0
	lw	a7,0(a1)
	.loc 1 266 13 is_stmt 1
.LVL121:
	.loc 1 269 21 is_stmt 0
	slli	s8,a0,16
	srli	t1,s8,16
	.loc 1 266 17
	add	a4,a4,a7
.LVL122:
	.loc 1 267 13 is_stmt 1
	.loc 1 267 16 is_stmt 0
	ble	a4,s2,.L373
	.loc 1 269 17 is_stmt 1
	.loc 1 269 21 is_stmt 0
	addi	t2,t1,10
.LVL123:
	slli	a4,t2,16
	srai	a0,a4,16
	.loc 1 270 17 is_stmt 1
.LVL124:
	.loc 1 270 21 is_stmt 0
	li	a4,0
.LVL125:
.L374:
	.loc 1 276 13 is_stmt 1
	.loc 1 263 28
	.loc 1 263 29 is_stmt 0
	addi	a6,a6,1
	.loc 1 263 21 is_stmt 1
	.loc 1 263 9 is_stmt 0
	addi	a1,a1,4
.LVL126:
	bgtu	s1,a6,.L17
	j	.L368
.L430:
	.loc 1 274 17 is_stmt 1
	.loc 1 274 41 is_stmt 0
	sgt	a7,t0,a7
.LVL127:
	.loc 1 265 17
	lw	t4,4(a1)
	.loc 1 274 21
	add	t3,a0,a7
	slli	s10,t3,16
	srai	ra,s10,16
	.loc 1 276 13 is_stmt 1
	.loc 1 263 28
	.loc 1 269 21 is_stmt 0
	slli	t1,ra,16
	.loc 1 266 17
	add	s8,s9,t4
	.loc 1 263 29
	addi	a6,a6,1
	.loc 1 263 21 is_stmt 1
	.loc 1 263 9 is_stmt 0
	addi	a1,a1,4
	.loc 1 265 13 is_stmt 1
	.loc 1 266 13
	.loc 1 267 13
	.loc 1 269 21 is_stmt 0
	srli	s4,t1,16
	.loc 1 267 16
	ble	s8,s2,.L429
.L158:
	.loc 1 269 17 is_stmt 1
	.loc 1 265 17 is_stmt 0
	lw	a0,4(a1)
	.loc 1 269 21
	addi	t0,s4,10
	slli	t6,t0,16
	srai	a4,t6,16
	.loc 1 270 17 is_stmt 1
.LVL128:
	.loc 1 270 21 is_stmt 0
	li	s8,0
.LVL129:
	.loc 1 276 13 is_stmt 1
	.loc 1 263 28
	.loc 1 263 21
	.loc 1 265 13
	.loc 1 266 13
	.loc 1 269 21 is_stmt 0
	slli	a7,a4,16
	.loc 1 266 17
	add	s10,s8,a0
	.loc 1 267 13 is_stmt 1
	.loc 1 269 21 is_stmt 0
	srli	t3,a7,16
	.loc 1 267 16
	ble	s10,s2,.L376
.L431:
	.loc 1 269 17 is_stmt 1
	.loc 1 265 17 is_stmt 0
	lw	a7,8(a1)
	.loc 1 269 21
	addi	t4,t3,10
	slli	s8,t4,16
	srai	s9,s8,16
	.loc 1 270 17 is_stmt 1
.LVL130:
	.loc 1 270 21 is_stmt 0
	li	s10,0
.LVL131:
	.loc 1 276 13 is_stmt 1
	.loc 1 263 28
	.loc 1 263 21
	.loc 1 265 13
	.loc 1 266 13
	.loc 1 269 21 is_stmt 0
	slli	t1,s9,16
	.loc 1 266 17
	add	a4,s10,a7
	.loc 1 267 13 is_stmt 1
	.loc 1 269 21 is_stmt 0
	srli	s4,t1,16
	.loc 1 267 16
	ble	a4,s2,.L378
.LVL132:
.L432:
	.loc 1 269 17 is_stmt 1
	.loc 1 269 21 is_stmt 0
	addi	t0,s4,10
	slli	t6,t0,16
	.loc 1 263 29
	addi	a6,a6,3
	.loc 1 269 21
	srai	a0,t6,16
.LVL133:
	.loc 1 270 17 is_stmt 1
	.loc 1 270 21 is_stmt 0
	li	a4,0
	.loc 1 276 13 is_stmt 1
	.loc 1 263 28
	.loc 1 263 21
	.loc 1 263 9 is_stmt 0
	addi	a1,a1,12
	bleu	s1,a6,.L368
.LVL134:
.L17:
	.loc 1 265 13 is_stmt 1
	.loc 1 265 17 is_stmt 0
	lw	t0,0(a1)
	.loc 1 266 13 is_stmt 1
	.loc 1 269 21 is_stmt 0
	slli	t6,a0,16
	srli	a0,t6,16
	.loc 1 266 17
	add	s9,a4,t0
	.loc 1 267 13 is_stmt 1
	.loc 1 267 16 is_stmt 0
	ble	s9,s2,.L430
	.loc 1 269 17 is_stmt 1
	.loc 1 265 17 is_stmt 0
	lw	t4,4(a1)
	.loc 1 269 21
	addi	a5,a0,10
	slli	s5,a5,16
	srai	ra,s5,16
	.loc 1 270 17 is_stmt 1
.LVL135:
	.loc 1 270 21 is_stmt 0
	li	s9,0
.LVL136:
	.loc 1 276 13 is_stmt 1
	.loc 1 263 28
	.loc 1 269 21 is_stmt 0
	slli	t1,ra,16
	.loc 1 266 17
	add	s8,s9,t4
	.loc 1 263 29
	addi	a6,a6,1
	.loc 1 263 21 is_stmt 1
	.loc 1 263 9 is_stmt 0
	addi	a1,a1,4
	.loc 1 265 13 is_stmt 1
	.loc 1 266 13
	.loc 1 267 13
	.loc 1 269 21 is_stmt 0
	srli	s4,t1,16
	.loc 1 267 16
	bgt	s8,s2,.L158
.LVL137:
.L429:
	.loc 1 274 17 is_stmt 1
	.loc 1 274 41 is_stmt 0
	sgt	t5,t4,t0
	.loc 1 265 17
	lw	a0,4(a1)
	.loc 1 274 21
	add	s6,s4,t5
	slli	t2,s6,16
	srai	a4,t2,16
	.loc 1 276 13 is_stmt 1
	.loc 1 263 28
	.loc 1 263 21
	.loc 1 265 13
	.loc 1 266 13
	.loc 1 269 21 is_stmt 0
	slli	a7,a4,16
	.loc 1 266 17
	add	s10,s8,a0
	.loc 1 267 13 is_stmt 1
	.loc 1 269 21 is_stmt 0
	srli	t3,a7,16
	.loc 1 267 16
	bgt	s10,s2,.L431
.L376:
	.loc 1 274 17 is_stmt 1
	.loc 1 274 41 is_stmt 0
	sgt	a5,a0,t4
	.loc 1 265 17
	lw	a7,8(a1)
	.loc 1 274 21
	add	s5,t3,a5
	slli	ra,s5,16
	srai	s9,ra,16
	.loc 1 276 13 is_stmt 1
	.loc 1 263 28
	.loc 1 263 21
	.loc 1 265 13
.LVL138:
	.loc 1 266 13
	.loc 1 269 21 is_stmt 0
	slli	t1,s9,16
	.loc 1 266 17
	add	a4,s10,a7
	.loc 1 267 13 is_stmt 1
	.loc 1 269 21 is_stmt 0
	srli	s4,t1,16
	.loc 1 267 16
	bgt	a4,s2,.L432
.LVL139:
.L378:
	.loc 1 274 17 is_stmt 1
	.loc 1 274 41 is_stmt 0
	sgt	t5,a7,a0
	.loc 1 274 21
	add	s6,s4,t5
	slli	t2,s6,16
	.loc 1 263 29
	addi	a6,a6,3
	.loc 1 274 21
	srai	a0,t2,16
.LVL140:
	.loc 1 276 13 is_stmt 1
	.loc 1 263 28
	.loc 1 263 21
	.loc 1 263 9 is_stmt 0
	addi	a1,a1,12
	bgtu	s1,a6,.L17
.LVL141:
.L368:
	.loc 1 261 24 is_stmt 1
	.loc 1 261 25 is_stmt 0
	addi	a2,a2,1
.LVL142:
	.loc 1 261 17 is_stmt 1
	.loc 1 261 5 is_stmt 0
	add	a3,a3,s1
	bgtu	s1,a2,.L18
	.loc 1 279 5 is_stmt 1
.LVL143:
.LBE60:
.LBE59:
	.loc 1 163 11 is_stmt 0
	mv	a1,s11
	call	crc16
.LVL144:
	lw	t2,4(sp)
	lw	s8,12(sp)
	lw	s9,8(sp)
	sw	a0,16(sp)
.LVL145:
	.loc 1 167 5 is_stmt 1
.LBB66:
.LBB67:
	.loc 1 342 5
	.loc 1 343 5
	.loc 1 343 17
.LBE67:
.LBE66:
	.loc 1 163 11 is_stmt 0
	li	a0,0
	mv	s10,s7
	sw	s7,28(sp)
	sw	s2,20(sp)
	sw	s3,24(sp)
	mv	s7,a0
.LVL146:
.L38:
.LBB71:
.LBB68:
	.loc 1 345 21 is_stmt 1
.LBE68:
.LBE71:
.LBB72:
.LBB61:
	.loc 1 270 21 is_stmt 0
	mv	a1,s9
	mv	t0,s10
.LBE61:
.LBE72:
.LBB73:
.LBB69:
	.loc 1 345 16
	li	t6,0
.LVL147:
.L21:
	.loc 1 347 13 is_stmt 1
	.loc 1 348 13
	.loc 1 348 25
	.loc 1 350 33 is_stmt 0
	lh	s3,0(t2)
	.loc 1 350 56
	lh	t3,0(a1)
	addi	s5,s1,-1
	.loc 1 348 33
	li	a0,1
	.loc 1 350 54
	mul	a5,s3,t3
	andi	ra,s5,7
	.loc 1 350 17 is_stmt 1
	.loc 1 348 32
	.loc 1 348 25
	.loc 1 348 13 is_stmt 0
	addi	a3,t2,2
	add	a2,a1,s0
	bleu	s1,a0,.L331
	beq	ra,zero,.L20
	beq	ra,a0,.L303
	li	t4,2
	beq	ra,t4,.L304
	li	a7,3
	beq	ra,a7,.L305
	li	t1,4
	beq	ra,t1,.L306
	li	s4,5
	beq	ra,s4,.L307
	li	a4,6
	beq	ra,a4,.L308
	.loc 1 350 17 is_stmt 1
	.loc 1 350 33 is_stmt 0
	lh	t5,0(a3)
	.loc 1 350 56
	lh	s6,0(a2)
	.loc 1 348 33
	li	a0,2
	.loc 1 348 13
	addi	a3,t2,4
	.loc 1 350 54
	mul	a6,t5,s6
	.loc 1 348 13
	add	a2,a2,s0
	.loc 1 350 30
	add	a5,a5,a6
	.loc 1 348 32 is_stmt 1
	.loc 1 348 25
.L308:
	.loc 1 350 17
	.loc 1 350 33 is_stmt 0
	lh	s2,0(a3)
	.loc 1 350 56
	lh	s11,0(a2)
	.loc 1 348 33
	addi	a0,a0,1
	.loc 1 348 13
	addi	a3,a3,2
	.loc 1 350 54
	mul	s3,s2,s11
	.loc 1 348 13
	add	a2,a2,s0
	.loc 1 350 30
	add	a5,a5,s3
	.loc 1 348 32 is_stmt 1
	.loc 1 348 25
.L307:
	.loc 1 350 17
	.loc 1 350 33 is_stmt 0
	lh	t3,0(a3)
	.loc 1 350 56
	lh	s5,0(a2)
	.loc 1 348 33
	addi	a0,a0,1
	.loc 1 348 13
	addi	a3,a3,2
	.loc 1 350 54
	mul	ra,t3,s5
	.loc 1 348 13
	add	a2,a2,s0
	.loc 1 350 30
	add	a5,a5,ra
	.loc 1 348 32 is_stmt 1
	.loc 1 348 25
.L306:
	.loc 1 350 17
	.loc 1 350 33 is_stmt 0
	lh	t4,0(a3)
	.loc 1 350 56
	lh	a7,0(a2)
	.loc 1 348 33
	addi	a0,a0,1
	.loc 1 348 13
	addi	a3,a3,2
	.loc 1 350 54
	mul	t1,t4,a7
	.loc 1 348 13
	add	a2,a2,s0
	.loc 1 350 30
	add	a5,a5,t1
	.loc 1 348 32 is_stmt 1
	.loc 1 348 25
.L305:
	.loc 1 350 17
	.loc 1 350 33 is_stmt 0
	lh	s4,0(a3)
	.loc 1 350 56
	lh	a4,0(a2)
	.loc 1 348 33
	addi	a0,a0,1
	.loc 1 348 13
	addi	a3,a3,2
	.loc 1 350 54
	mul	t5,s4,a4
	.loc 1 348 13
	add	a2,a2,s0
	.loc 1 350 30
	add	a5,a5,t5
	.loc 1 348 32 is_stmt 1
	.loc 1 348 25
.L304:
	.loc 1 350 17
	.loc 1 350 33 is_stmt 0
	lh	s6,0(a3)
	.loc 1 350 56
	lh	a6,0(a2)
	.loc 1 348 33
	addi	a0,a0,1
	.loc 1 348 13
	addi	a3,a3,2
	.loc 1 350 54
	mul	s2,s6,a6
	.loc 1 348 13
	add	a2,a2,s0
	.loc 1 350 30
	add	a5,a5,s2
	.loc 1 348 32 is_stmt 1
	.loc 1 348 25
.L303:
	.loc 1 350 17
	.loc 1 350 33 is_stmt 0
	lh	s11,0(a3)
	.loc 1 350 56
	lh	s3,0(a2)
	.loc 1 348 33
	addi	a0,a0,1
	.loc 1 348 13
	addi	a3,a3,2
	.loc 1 350 54
	mul	t3,s11,s3
	.loc 1 348 13
	add	a2,a2,s0
	.loc 1 350 30
	add	a5,a5,t3
	.loc 1 348 32 is_stmt 1
	.loc 1 348 25
	.loc 1 348 13 is_stmt 0
	bleu	s1,a0,.L331
.L20:
	.loc 1 350 17 is_stmt 1
	.loc 1 348 13 is_stmt 0
	add	s5,a2,s0
	.loc 1 350 33
	lh	a7,0(a3)
	.loc 1 350 56
	lh	t1,0(a2)
	.loc 1 348 13
	add	ra,s5,s0
	.loc 1 350 33
	lh	t5,2(a3)
	.loc 1 350 56
	lh	t4,0(s5)
	.loc 1 348 13
	add	s4,ra,s0
	.loc 1 350 54
	mul	a4,a7,t1
	.loc 1 348 13
	add	s6,s4,s0
	.loc 1 350 56
	lh	s5,0(s4)
	.loc 1 348 13
	add	s2,s6,s0
	.loc 1 350 56
	lh	s4,0(s6)
	lh	s11,0(ra)
	.loc 1 350 33
	lh	s3,4(a3)
	lh	ra,6(a3)
	lh	t3,8(a3)
	.loc 1 348 13
	add	a6,s2,s0
	.loc 1 350 54
	mul	s6,t5,t4
	.loc 1 350 33
	lh	t1,10(a3)
	.loc 1 350 56
	lh	s2,0(s2)
	.loc 1 350 33
	lh	a7,12(a3)
	.loc 1 350 56
	lh	t5,0(a6)
	.loc 1 348 13
	add	a2,a6,s0
	.loc 1 350 56
	lh	t4,0(a2)
	.loc 1 350 33
	lh	a6,14(a3)
	.loc 1 350 30
	add	a5,a5,a4
	.loc 1 348 32 is_stmt 1
	.loc 1 348 25
	.loc 1 350 17
	.loc 1 348 33 is_stmt 0
	addi	a0,a0,8
	.loc 1 350 54
	mul	s3,s3,s11
	.loc 1 350 30
	add	s11,a5,s6
	.loc 1 348 32 is_stmt 1
	.loc 1 348 25
	.loc 1 350 17
	.loc 1 348 13 is_stmt 0
	addi	a3,a3,16
	add	a2,a2,s0
	.loc 1 350 54
	mul	ra,ra,s5
	.loc 1 350 30
	add	a4,s11,s3
	.loc 1 348 32 is_stmt 1
	.loc 1 348 25
	.loc 1 350 17
	.loc 1 350 54 is_stmt 0
	mul	s5,t3,s4
	.loc 1 350 30
	add	t3,a4,ra
	.loc 1 348 32 is_stmt 1
	.loc 1 348 25
	.loc 1 350 17
	.loc 1 350 54 is_stmt 0
	mul	s4,t1,s2
	.loc 1 350 30
	add	t1,t3,s5
	.loc 1 348 32 is_stmt 1
	.loc 1 348 25
	.loc 1 350 17
	.loc 1 350 54 is_stmt 0
	mul	s2,a7,t5
	.loc 1 350 30
	add	a7,t1,s4
	.loc 1 348 32 is_stmt 1
	.loc 1 348 25
	.loc 1 350 17
	.loc 1 350 54 is_stmt 0
	mul	s6,a6,t4
	.loc 1 350 30
	add	t5,a7,s2
	.loc 1 348 32 is_stmt 1
	.loc 1 348 25
	.loc 1 350 17
	.loc 1 350 30 is_stmt 0
	add	a5,t5,s6
	.loc 1 348 32 is_stmt 1
	.loc 1 348 25
	.loc 1 348 13 is_stmt 0
	bgtu	s1,a0,.L20
.L331:
	sw	a5,0(t0)
	.loc 1 345 28 is_stmt 1
	.loc 1 345 29 is_stmt 0
	addi	t6,t6,1
.LVL148:
	.loc 1 345 21 is_stmt 1
	.loc 1 345 9 is_stmt 0
	addi	t0,t0,4
	addi	a1,a1,2
	bgtu	s1,t6,.L21
	.loc 1 343 24 is_stmt 1
	.loc 1 343 25 is_stmt 0
	addi	s7,s7,1
.LVL149:
	.loc 1 343 17 is_stmt 1
	.loc 1 343 5 is_stmt 0
	add	t2,t2,s0
	add	s10,s10,s8
	bgtu	s1,s7,.L38
	lw	s2,20(sp)
	lw	s3,24(sp)
	lw	s7,28(sp)
.LVL150:
	li	a3,0
	li	a7,0
	li	t3,0
	li	a4,0
	li	a2,0
.LVL151:
.L22:
.LBE69:
.LBE73:
.LBB74:
.LBB75:
	.loc 1 263 21 is_stmt 1
	slli	s10,a3,2
	add	t2,s7,s10
	mv	s8,t3
	.loc 1 265 17 is_stmt 0
	lw	t3,0(t2)
	addi	s9,s1,-1
	.loc 1 269 21
	slli	a1,a7,16
	.loc 1 266 17
	add	a4,a4,t3
	andi	t0,s9,3
	.loc 1 265 13 is_stmt 1
.LVL152:
	.loc 1 266 13
	.loc 1 267 13
	.loc 1 269 21 is_stmt 0
	srli	t6,a1,16
	.loc 1 267 16
	ble	a4,s2,.L433
	.loc 1 269 17 is_stmt 1
	.loc 1 269 21 is_stmt 0
	addi	a5,t6,10
.LVL153:
	slli	s11,a5,16
	srai	a7,s11,16
	.loc 1 270 17 is_stmt 1
.LVL154:
	.loc 1 270 21 is_stmt 0
	li	a4,0
.LVL155:
.L354:
	.loc 1 276 13 is_stmt 1
	.loc 1 263 28
	.loc 1 263 29 is_stmt 0
	li	a0,1
	.loc 1 263 21 is_stmt 1
	.loc 1 263 9 is_stmt 0
	addi	a1,t2,4
	bleu	s1,a0,.L355
	beq	t0,zero,.L25
	beq	t0,a0,.L301
	li	ra,2
	beq	t0,ra,.L302
	.loc 1 265 13 is_stmt 1
	mv	s5,t3
.LVL156:
	.loc 1 265 17 is_stmt 0
	lw	t3,4(t2)
	.loc 1 266 13 is_stmt 1
.LVL157:
	.loc 1 269 21 is_stmt 0
	slli	s4,a7,16
	srli	t1,s4,16
	.loc 1 266 17
	add	a4,a4,t3
.LVL158:
	.loc 1 267 13 is_stmt 1
	.loc 1 267 16 is_stmt 0
	ble	a4,s2,.L356
	.loc 1 269 17 is_stmt 1
	.loc 1 269 21 is_stmt 0
	addi	a4,t1,10
.LVL159:
	slli	s10,a4,16
	srai	a7,s10,16
	.loc 1 270 17 is_stmt 1
.LVL160:
	.loc 1 270 21 is_stmt 0
	li	a4,0
.LVL161:
.L357:
	.loc 1 276 13 is_stmt 1
	.loc 1 263 28
	.loc 1 263 29 is_stmt 0
	addi	a0,a0,1
	.loc 1 263 21 is_stmt 1
	.loc 1 263 9 is_stmt 0
	addi	a1,a1,4
.LVL162:
.L302:
	.loc 1 265 13 is_stmt 1
	mv	t2,t3
.LVL163:
	.loc 1 265 17 is_stmt 0
	lw	t3,0(a1)
	.loc 1 266 13 is_stmt 1
.LVL164:
	.loc 1 269 21 is_stmt 0
	slli	s8,a7,16
	srli	s9,s8,16
	.loc 1 266 17
	add	a4,a4,t3
.LVL165:
	.loc 1 267 13 is_stmt 1
	.loc 1 267 16 is_stmt 0
	ble	a4,s2,.L358
	.loc 1 269 17 is_stmt 1
	.loc 1 269 21 is_stmt 0
	addi	t4,s9,10
.LVL166:
	slli	a5,t4,16
	srai	a7,a5,16
	.loc 1 270 17 is_stmt 1
.LVL167:
	.loc 1 270 21 is_stmt 0
	li	a4,0
.LVL168:
.L359:
	.loc 1 276 13 is_stmt 1
	.loc 1 263 28
	.loc 1 263 29 is_stmt 0
	addi	a0,a0,1
	.loc 1 263 21 is_stmt 1
	.loc 1 263 9 is_stmt 0
	addi	a1,a1,4
.LVL169:
.L301:
	.loc 1 265 13 is_stmt 1
	mv	s11,t3
.LVL170:
	.loc 1 265 17 is_stmt 0
	lw	t3,0(a1)
	.loc 1 266 13 is_stmt 1
.LVL171:
	.loc 1 269 21 is_stmt 0
	slli	ra,a7,16
	srli	s5,ra,16
	.loc 1 266 17
	add	a4,a4,t3
.LVL172:
	.loc 1 267 13 is_stmt 1
	.loc 1 267 16 is_stmt 0
	ble	a4,s2,.L360
	.loc 1 269 17 is_stmt 1
	.loc 1 269 21 is_stmt 0
	addi	s6,s5,10
.LVL173:
	slli	t5,s6,16
	srai	a7,t5,16
	.loc 1 270 17 is_stmt 1
.LVL174:
	.loc 1 270 21 is_stmt 0
	li	a4,0
.LVL175:
.L361:
	.loc 1 276 13 is_stmt 1
	.loc 1 263 28
	.loc 1 263 29 is_stmt 0
	addi	a0,a0,1
	.loc 1 263 21 is_stmt 1
	.loc 1 263 9 is_stmt 0
	addi	a1,a1,4
.LVL176:
	bgtu	s1,a0,.L25
	j	.L355
.L435:
	.loc 1 274 17 is_stmt 1
	.loc 1 274 41 is_stmt 0
	sgt	t3,s10,t3
.LVL177:
	.loc 1 265 17
	lw	s11,4(a1)
	.loc 1 274 21
	add	s9,s8,t3
	slli	t0,s9,16
	srai	a6,t0,16
	.loc 1 276 13 is_stmt 1
	.loc 1 263 28
	.loc 1 269 21 is_stmt 0
	slli	a5,a6,16
	.loc 1 266 17
	add	ra,t4,s11
	.loc 1 263 29
	addi	a0,a0,1
	.loc 1 263 21 is_stmt 1
	.loc 1 263 9 is_stmt 0
	addi	a1,a1,4
	.loc 1 265 13 is_stmt 1
	.loc 1 266 13
	.loc 1 267 13
	.loc 1 269 21 is_stmt 0
	srli	s5,a5,16
	.loc 1 267 16
	ble	ra,s2,.L434
.L119:
	.loc 1 269 17 is_stmt 1
	.loc 1 265 17 is_stmt 0
	lw	t2,4(a1)
	.loc 1 269 21
	addi	t5,s5,10
	slli	s10,t5,16
	srai	s6,s10,16
	.loc 1 270 17 is_stmt 1
.LVL178:
	.loc 1 270 21 is_stmt 0
	li	ra,0
.LVL179:
	.loc 1 276 13 is_stmt 1
	.loc 1 263 28
	.loc 1 263 21
	.loc 1 265 13
	.loc 1 266 13
	.loc 1 269 21 is_stmt 0
	slli	s8,s6,16
	.loc 1 266 17
	add	s9,ra,t2
	.loc 1 267 13 is_stmt 1
	.loc 1 269 21 is_stmt 0
	srli	t3,s8,16
	.loc 1 267 16
	ble	s9,s2,.L363
.L436:
	.loc 1 269 17 is_stmt 1
	.loc 1 269 21 is_stmt 0
	addi	t4,t3,10
	.loc 1 265 17
	lw	t3,8(a1)
	.loc 1 269 21
	slli	s11,t4,16
	srai	a6,s11,16
	.loc 1 270 17 is_stmt 1
.LVL180:
	.loc 1 270 21 is_stmt 0
	li	s9,0
.LVL181:
	.loc 1 276 13 is_stmt 1
	.loc 1 263 28
	.loc 1 263 21
	.loc 1 265 13
	.loc 1 266 13
	.loc 1 269 21 is_stmt 0
	slli	ra,a6,16
	.loc 1 266 17
	add	a4,s9,t3
	.loc 1 267 13 is_stmt 1
	.loc 1 269 21 is_stmt 0
	srli	a5,ra,16
	.loc 1 267 16
	ble	a4,s2,.L365
.LVL182:
.L437:
	.loc 1 269 17 is_stmt 1
	.loc 1 269 21 is_stmt 0
	addi	s6,a5,10
	slli	t5,s6,16
	.loc 1 263 29
	addi	a0,a0,3
	.loc 1 269 21
	srai	a7,t5,16
.LVL183:
	.loc 1 270 17 is_stmt 1
	.loc 1 270 21 is_stmt 0
	li	a4,0
	.loc 1 276 13 is_stmt 1
	.loc 1 263 28
	.loc 1 263 21
	.loc 1 263 9 is_stmt 0
	addi	a1,a1,12
	bleu	s1,a0,.L355
.LVL184:
.L25:
	.loc 1 265 13 is_stmt 1
	.loc 1 265 17 is_stmt 0
	lw	s10,0(a1)
	.loc 1 266 13 is_stmt 1
	.loc 1 269 21 is_stmt 0
	slli	t2,a7,16
	srli	s8,t2,16
	.loc 1 266 17
	add	t4,a4,s10
	.loc 1 267 13 is_stmt 1
	.loc 1 267 16 is_stmt 0
	ble	t4,s2,.L435
	.loc 1 269 17 is_stmt 1
	.loc 1 265 17 is_stmt 0
	lw	s11,4(a1)
	.loc 1 269 21
	addi	a4,s8,10
	slli	t6,a4,16
	srai	a6,t6,16
	.loc 1 270 17 is_stmt 1
.LVL185:
	.loc 1 270 21 is_stmt 0
	li	t4,0
.LVL186:
	.loc 1 276 13 is_stmt 1
	.loc 1 263 28
	.loc 1 269 21 is_stmt 0
	slli	a5,a6,16
	.loc 1 266 17
	add	ra,t4,s11
	.loc 1 263 29
	addi	a0,a0,1
	.loc 1 263 21 is_stmt 1
	.loc 1 263 9 is_stmt 0
	addi	a1,a1,4
	.loc 1 265 13 is_stmt 1
	.loc 1 266 13
	.loc 1 267 13
	.loc 1 269 21 is_stmt 0
	srli	s5,a5,16
	.loc 1 267 16
	bgt	ra,s2,.L119
.LVL187:
.L434:
	.loc 1 274 17 is_stmt 1
	.loc 1 274 41 is_stmt 0
	sgt	s4,s11,s10
	.loc 1 265 17
	lw	t2,4(a1)
	.loc 1 274 21
	add	t1,s5,s4
	slli	a7,t1,16
	srai	s6,a7,16
	.loc 1 276 13 is_stmt 1
	.loc 1 263 28
	.loc 1 263 21
	.loc 1 265 13
	.loc 1 266 13
	.loc 1 269 21 is_stmt 0
	slli	s8,s6,16
	.loc 1 266 17
	add	s9,ra,t2
	.loc 1 267 13 is_stmt 1
	.loc 1 269 21 is_stmt 0
	srli	t3,s8,16
	.loc 1 267 16
	bgt	s9,s2,.L436
.L363:
	.loc 1 274 17 is_stmt 1
	.loc 1 274 41 is_stmt 0
	sgt	t0,t2,s11
	.loc 1 274 21
	add	a4,t3,t0
	.loc 1 265 17
	lw	t3,8(a1)
	.loc 1 274 21
	slli	t6,a4,16
	srai	a6,t6,16
	.loc 1 276 13 is_stmt 1
	.loc 1 263 28
	.loc 1 263 21
	.loc 1 265 13
.LVL188:
	.loc 1 266 13
	.loc 1 269 21 is_stmt 0
	slli	ra,a6,16
	.loc 1 266 17
	add	a4,s9,t3
	.loc 1 267 13 is_stmt 1
	.loc 1 269 21 is_stmt 0
	srli	a5,ra,16
	.loc 1 267 16
	bgt	a4,s2,.L437
.LVL189:
.L365:
	.loc 1 274 17 is_stmt 1
	.loc 1 274 41 is_stmt 0
	sgt	s5,t3,t2
	.loc 1 274 21
	add	s4,a5,s5
	slli	t1,s4,16
	.loc 1 263 29
	addi	a0,a0,3
	.loc 1 274 21
	srai	a7,t1,16
.LVL190:
	.loc 1 276 13 is_stmt 1
	.loc 1 263 28
	.loc 1 263 21
	.loc 1 263 9 is_stmt 0
	addi	a1,a1,12
	bgtu	s1,a0,.L25
.LVL191:
.L355:
	.loc 1 261 24 is_stmt 1
	.loc 1 261 25 is_stmt 0
	addi	a2,a2,1
.LVL192:
	.loc 1 261 17 is_stmt 1
	.loc 1 261 5 is_stmt 0
	add	a3,a3,s1
	bgtu	s1,a2,.L22
	.loc 1 279 5 is_stmt 1
.LVL193:
.LBE75:
.LBE74:
	.loc 1 168 11 is_stmt 0
	lw	a1,16(sp)
	mv	a0,a7
	mv	s10,s7
	call	crc16
.LVL194:
	lw	t0,4(sp)
	lw	t4,12(sp)
	lw	t2,8(sp)
	mv	a1,a0
.LVL195:
	.loc 1 172 5 is_stmt 1
.LBB82:
.LBB83:
	.loc 1 364 5
	.loc 1 365 5
	.loc 1 365 17
.LBE83:
.LBE82:
	.loc 1 168 11 is_stmt 0
	li	t6,0
.LVL196:
.L37:
.LBB107:
.LBB104:
	.loc 1 367 21 is_stmt 1
.LBE104:
.LBE107:
.LBB108:
.LBB76:
	.loc 1 270 21 is_stmt 0
	mv	s11,t2
	mv	t3,s10
.LBE76:
.LBE108:
.LBB109:
.LBB105:
	.loc 1 367 16
	li	t1,0
.LVL197:
.L28:
	.loc 1 369 13 is_stmt 1
	.loc 1 370 13
	.loc 1 370 25
.LBB84:
	.loc 1 372 30 is_stmt 0
	lh	s8,0(t0)
	.loc 1 372 53
	lh	s9,0(s11)
	addi	ra,s1,-1
.LBE84:
	.loc 1 370 33
	li	a6,1
.LBB85:
	.loc 1 372 24
	mul	a4,s8,s9
	andi	s5,ra,3
	.loc 1 372 17 is_stmt 1
.LVL198:
	.loc 1 373 17
.LBE85:
	.loc 1 370 13 is_stmt 0
	addi	a0,t0,2
	add	a2,s11,s0
.LBB86:
	.loc 1 373 58
	srai	s4,a4,5
	.loc 1 373 33
	srai	a5,a4,2
	andi	a7,a5,15
	.loc 1 373 58
	andi	s6,s4,127
	.loc 1 373 56
	mul	s4,a7,s6
.LBE86:
	.loc 1 370 32 is_stmt 1
	.loc 1 370 25
	.loc 1 370 13 is_stmt 0
	bleu	s1,a6,.L335
	beq	s5,zero,.L27
	beq	s5,a6,.L298
	li	t5,2
	beq	s5,t5,.L299
.LBB87:
	.loc 1 372 17 is_stmt 1
	.loc 1 372 30 is_stmt 0
	lh	a3,0(a0)
	.loc 1 372 53
	lh	s8,0(a2)
.LVL199:
.LBE87:
	.loc 1 370 33
	li	a6,2
	.loc 1 370 13
	addi	a0,t0,4
.LBB88:
	.loc 1 372 24
	mul	s9,a3,s8
.LVL200:
	.loc 1 373 17 is_stmt 1
.LBE88:
	.loc 1 370 13 is_stmt 0
	add	a2,a2,s0
.LBB89:
	.loc 1 373 33
	srai	ra,s9,2
	.loc 1 373 58
	srai	s5,s9,5
	.loc 1 373 33
	andi	a4,ra,15
	.loc 1 373 58
	andi	a5,s5,127
	.loc 1 373 56
	mul	a7,a4,a5
	.loc 1 373 30
	add	s4,s4,a7
.LBE89:
	.loc 1 370 32 is_stmt 1
	.loc 1 370 25
.L299:
.LBB90:
	.loc 1 372 17
	.loc 1 372 30 is_stmt 0
	lh	s6,0(a0)
	.loc 1 372 53
	lh	t5,0(a2)
.LBE90:
	.loc 1 370 33
	addi	a6,a6,1
	.loc 1 370 13
	addi	a0,a0,2
.LBB91:
	.loc 1 372 24
	mul	a3,s6,t5
	.loc 1 373 17 is_stmt 1
.LBE91:
	.loc 1 370 13 is_stmt 0
	add	a2,a2,s0
.LBB92:
	.loc 1 373 33
	srai	s8,a3,2
	.loc 1 373 58
	srai	s9,a3,5
	.loc 1 373 33
	andi	ra,s8,15
	.loc 1 373 58
	andi	s5,s9,127
	.loc 1 373 56
	mul	a4,ra,s5
	.loc 1 373 30
	add	s4,s4,a4
.LBE92:
	.loc 1 370 32 is_stmt 1
	.loc 1 370 25
.L298:
.LBB93:
	.loc 1 372 17
	.loc 1 372 30 is_stmt 0
	lh	a5,0(a0)
	.loc 1 372 53
	lh	a7,0(a2)
.LBE93:
	.loc 1 370 33
	addi	a6,a6,1
	.loc 1 370 13
	addi	a0,a0,2
.LBB94:
	.loc 1 372 24
	mul	s6,a5,a7
	.loc 1 373 17 is_stmt 1
.LBE94:
	.loc 1 370 13 is_stmt 0
	add	a2,a2,s0
.LBB95:
	.loc 1 373 33
	srai	t5,s6,2
	.loc 1 373 58
	srai	a3,s6,5
	.loc 1 373 33
	andi	s8,t5,15
	.loc 1 373 58
	andi	s9,a3,127
	.loc 1 373 56
	mul	ra,s8,s9
	.loc 1 373 30
	add	s4,s4,ra
.LBE95:
	.loc 1 370 32 is_stmt 1
	.loc 1 370 25
	.loc 1 370 13 is_stmt 0
	bleu	s1,a6,.L335
.L27:
.LBB96:
	.loc 1 372 17 is_stmt 1
.LBE96:
	.loc 1 370 13 is_stmt 0
	add	a7,a2,s0
.LBB97:
	.loc 1 372 30
	lh	t5,0(a0)
	.loc 1 372 53
	lh	s5,0(a2)
.LBE97:
	.loc 1 370 13
	add	a5,a7,s0
.LBB98:
	.loc 1 372 30
	lh	a4,2(a0)
	.loc 1 372 53
	lh	s8,0(a7)
	.loc 1 372 30
	lh	s6,4(a0)
.LBE98:
	.loc 1 370 13
	add	a2,a5,s0
.LBB99:
	.loc 1 372 53
	lh	ra,0(a5)
	.loc 1 372 24
	mul	a3,t5,s5
	.loc 1 373 17 is_stmt 1
	.loc 1 372 53 is_stmt 0
	lh	a7,0(a2)
	.loc 1 372 30
	lh	s9,6(a0)
.LBE99:
	.loc 1 370 33
	addi	a6,a6,4
	.loc 1 370 13
	addi	a0,a0,8
	add	a2,a2,s0
.LBB100:
	.loc 1 372 24
	mul	t5,a4,s8
	.loc 1 373 33
	srai	s5,a3,2
	.loc 1 373 58
	srai	a4,a3,5
	.loc 1 373 33
	andi	s8,s5,15
	.loc 1 373 58
	andi	a5,a4,127
	.loc 1 372 24
	mul	ra,s6,ra
	.loc 1 373 58
	srai	a3,t5,5
	.loc 1 373 33
	srai	s6,t5,2
	.loc 1 373 58
	andi	a4,a3,127
	.loc 1 373 33
	andi	t5,s6,15
	.loc 1 372 24
	mul	s9,s9,a7
	.loc 1 373 33
	srai	a7,ra,2
	.loc 1 373 58
	srai	ra,ra,5
	.loc 1 373 33
	andi	s5,a7,15
	.loc 1 373 58
	andi	s6,ra,127
	.loc 1 373 56
	mul	a5,s8,a5
	.loc 1 373 58
	srai	a3,s9,5
	.loc 1 373 33
	srai	s8,s9,2
	andi	s9,s8,15
	.loc 1 373 58
	andi	a7,a3,127
	.loc 1 373 56
	mul	t5,t5,a4
	.loc 1 373 30
	add	s4,s4,a5
.LBE100:
	.loc 1 370 32 is_stmt 1
	.loc 1 370 25
.LBB101:
	.loc 1 372 17
	.loc 1 373 17
	.loc 1 373 56 is_stmt 0
	mul	a4,s5,s6
	.loc 1 373 30
	add	ra,s4,t5
.LBE101:
	.loc 1 370 32 is_stmt 1
	.loc 1 370 25
.LBB102:
	.loc 1 372 17
	.loc 1 373 17
	.loc 1 373 56 is_stmt 0
	mul	s5,s9,a7
	.loc 1 373 30
	add	s6,ra,a4
.LBE102:
	.loc 1 370 32 is_stmt 1
	.loc 1 370 25
.LBB103:
	.loc 1 372 17
	.loc 1 373 17
	.loc 1 373 30 is_stmt 0
	add	s4,s6,s5
.LBE103:
	.loc 1 370 32 is_stmt 1
	.loc 1 370 25
	.loc 1 370 13 is_stmt 0
	bgtu	s1,a6,.L27
.L335:
	sw	s4,0(t3)
	.loc 1 367 28 is_stmt 1
	.loc 1 367 29 is_stmt 0
	addi	t1,t1,1
.LVL201:
	.loc 1 367 21 is_stmt 1
	.loc 1 367 9 is_stmt 0
	addi	t3,t3,4
	addi	s11,s11,2
.LVL202:
	bgtu	s1,t1,.L28
	.loc 1 365 24 is_stmt 1
	.loc 1 365 25 is_stmt 0
	addi	t6,t6,1
.LVL203:
	.loc 1 365 17 is_stmt 1
	.loc 1 365 5 is_stmt 0
	add	t0,t0,s0
.LVL204:
	add	s10,s10,t4
	bgtu	s1,t6,.L37
	li	a4,0
	li	a0,0
	li	a6,0
	li	a2,0
	li	a3,0
.LVL205:
.L29:
.LBE105:
.LBE109:
.LBB110:
.LBB111:
	.loc 1 263 21 is_stmt 1
	slli	s0,a4,2
	add	s10,s7,s0
	mv	t0,a6
	.loc 1 265 17 is_stmt 0
	lw	a6,0(s10)
	addi	t6,s1,-1
	.loc 1 269 21
	slli	t4,a0,16
	.loc 1 266 17
	add	a2,a2,a6
	andi	t2,t6,3
	.loc 1 265 13 is_stmt 1
.LVL206:
	.loc 1 266 13
	.loc 1 267 13
	.loc 1 269 21 is_stmt 0
	srli	s11,t4,16
	.loc 1 267 16
	bge	s2,a2,.L438
	.loc 1 269 17 is_stmt 1
	.loc 1 269 21 is_stmt 0
	addi	a2,s11,10
.LVL207:
	slli	a5,a2,16
	srai	a0,a5,16
	.loc 1 270 17 is_stmt 1
.LVL208:
	.loc 1 270 21 is_stmt 0
	li	a2,0
.LVL209:
.L341:
	.loc 1 276 13 is_stmt 1
	.loc 1 263 28
	.loc 1 263 29 is_stmt 0
	li	t1,1
	.loc 1 263 21 is_stmt 1
	.loc 1 263 9 is_stmt 0
	addi	a7,s10,4
	bleu	s1,t1,.L342
	beq	t2,zero,.L32
	beq	t2,t1,.L296
	li	s8,2
	beq	t2,s8,.L297
	.loc 1 265 13 is_stmt 1
	mv	s9,a6
.LVL210:
	.loc 1 265 17 is_stmt 0
	lw	a6,4(s10)
	.loc 1 266 13 is_stmt 1
.LVL211:
	.loc 1 269 21 is_stmt 0
	slli	t5,a0,16
	srli	s4,t5,16
	.loc 1 266 17
	add	a2,a2,a6
.LVL212:
	.loc 1 267 13 is_stmt 1
	.loc 1 267 16 is_stmt 0
	bge	s2,a2,.L343
	.loc 1 269 17 is_stmt 1
	.loc 1 269 21 is_stmt 0
	addi	s0,s4,10
.LVL213:
	slli	s10,s0,16
	srai	a0,s10,16
	.loc 1 270 17 is_stmt 1
.LVL214:
	.loc 1 270 21 is_stmt 0
	li	a2,0
.LVL215:
.L344:
	.loc 1 276 13 is_stmt 1
	.loc 1 263 28
	.loc 1 263 29 is_stmt 0
	addi	t1,t1,1
	.loc 1 263 21 is_stmt 1
	.loc 1 263 9 is_stmt 0
	addi	a7,a7,4
.LVL216:
.L297:
	.loc 1 265 13 is_stmt 1
	mv	t0,a6
.LVL217:
	.loc 1 265 17 is_stmt 0
	lw	a6,0(a7)
	.loc 1 266 13 is_stmt 1
.LVL218:
	.loc 1 269 21 is_stmt 0
	slli	t6,a0,16
	srli	t2,t6,16
	.loc 1 266 17
	add	a2,a2,a6
.LVL219:
	.loc 1 267 13 is_stmt 1
	.loc 1 267 16 is_stmt 0
	bge	s2,a2,.L345
	.loc 1 269 17 is_stmt 1
	.loc 1 269 21 is_stmt 0
	addi	a0,t2,10
.LVL220:
	slli	a2,a0,16
	srai	a0,a2,16
.LVL221:
	.loc 1 270 17 is_stmt 1
	.loc 1 270 21 is_stmt 0
	li	a2,0
.LVL222:
.L346:
	.loc 1 276 13 is_stmt 1
	.loc 1 263 28
	.loc 1 263 29 is_stmt 0
	addi	t1,t1,1
	.loc 1 263 21 is_stmt 1
	.loc 1 263 9 is_stmt 0
	addi	a7,a7,4
.LVL223:
.L296:
	.loc 1 265 13 is_stmt 1
	mv	a5,a6
.LVL224:
	.loc 1 265 17 is_stmt 0
	lw	a6,0(a7)
	.loc 1 266 13 is_stmt 1
.LVL225:
	.loc 1 269 21 is_stmt 0
	slli	s8,a0,16
	srli	s9,s8,16
	.loc 1 266 17
	add	a2,a2,a6
.LVL226:
	.loc 1 267 13 is_stmt 1
	.loc 1 267 16 is_stmt 0
	bge	s2,a2,.L347
	.loc 1 269 17 is_stmt 1
	.loc 1 269 21 is_stmt 0
	addi	s5,s9,10
.LVL227:
	slli	s6,s5,16
	srai	a0,s6,16
	.loc 1 270 17 is_stmt 1
.LVL228:
	.loc 1 270 21 is_stmt 0
	li	a2,0
.LVL229:
.L348:
	.loc 1 276 13 is_stmt 1
	.loc 1 263 28
	.loc 1 263 29 is_stmt 0
	addi	t1,t1,1
	.loc 1 263 21 is_stmt 1
	.loc 1 263 9 is_stmt 0
	addi	a7,a7,4
.LVL230:
	bgtu	s1,t1,.L32
	j	.L342
.L440:
	.loc 1 274 17 is_stmt 1
	.loc 1 274 41 is_stmt 0
	sgt	a6,s0,a6
.LVL231:
	.loc 1 265 17
	lw	s8,4(a7)
	.loc 1 274 21
	add	t6,t0,a6
	slli	t2,t6,16
	srai	t3,t2,16
	.loc 1 276 13 is_stmt 1
	.loc 1 263 28
	.loc 1 269 21 is_stmt 0
	slli	a5,t3,16
	.loc 1 266 17
	add	a2,a0,s8
	.loc 1 263 29
	addi	t1,t1,1
	.loc 1 263 21 is_stmt 1
	.loc 1 263 9 is_stmt 0
	addi	a7,a7,4
	.loc 1 265 13 is_stmt 1
	.loc 1 266 13
	.loc 1 267 13
	.loc 1 269 21 is_stmt 0
	srli	s9,a5,16
	.loc 1 267 16
	bge	s2,a2,.L439
.L92:
	.loc 1 269 17 is_stmt 1
	.loc 1 265 17 is_stmt 0
	lw	s10,4(a7)
	.loc 1 269 21
	addi	s6,s9,10
	slli	s0,s6,16
	srai	s5,s0,16
	.loc 1 270 17 is_stmt 1
.LVL232:
	.loc 1 270 21 is_stmt 0
	li	a2,0
.LVL233:
	.loc 1 276 13 is_stmt 1
	.loc 1 263 28
	.loc 1 263 21
	.loc 1 265 13
	.loc 1 266 13
	.loc 1 269 21 is_stmt 0
	slli	t0,s5,16
	.loc 1 266 17
	add	t2,a2,s10
	.loc 1 267 13 is_stmt 1
	.loc 1 269 21 is_stmt 0
	srli	t6,t0,16
	.loc 1 267 16
	bge	s2,t2,.L350
.L441:
	.loc 1 269 17 is_stmt 1
	.loc 1 269 21 is_stmt 0
	addi	a0,t6,10
	.loc 1 265 17
	lw	a6,8(a7)
	.loc 1 269 21
	slli	s8,a0,16
	srai	t3,s8,16
	.loc 1 270 17 is_stmt 1
.LVL234:
	.loc 1 269 21 is_stmt 0
	slli	a2,t3,16
	.loc 1 270 21
	li	t2,0
.LVL235:
	.loc 1 276 13 is_stmt 1
	.loc 1 263 28
	.loc 1 263 21
	.loc 1 265 13
	.loc 1 266 13
	.loc 1 269 21 is_stmt 0
	srli	a5,a2,16
	.loc 1 266 17
	add	a2,t2,a6
	.loc 1 267 13 is_stmt 1
	.loc 1 267 16 is_stmt 0
	bge	s2,a2,.L352
.LVL236:
.L442:
	.loc 1 269 17 is_stmt 1
	.loc 1 269 21 is_stmt 0
	addi	ra,a5,10
	slli	s5,ra,16
	.loc 1 263 29
	addi	t1,t1,3
	.loc 1 269 21
	srai	a0,s5,16
.LVL237:
	.loc 1 270 17 is_stmt 1
	.loc 1 270 21 is_stmt 0
	li	a2,0
	.loc 1 276 13 is_stmt 1
	.loc 1 263 28
	.loc 1 263 21
	.loc 1 263 9 is_stmt 0
	addi	a7,a7,12
	bleu	s1,t1,.L342
.LVL238:
.L32:
	.loc 1 265 13 is_stmt 1
	.loc 1 265 17 is_stmt 0
	lw	s0,0(a7)
	.loc 1 266 13 is_stmt 1
	.loc 1 269 21 is_stmt 0
	slli	s10,a0,16
	srli	t0,s10,16
	.loc 1 266 17
	add	a0,a2,s0
	.loc 1 267 13 is_stmt 1
	.loc 1 267 16 is_stmt 0
	bge	s2,a0,.L440
	.loc 1 269 17 is_stmt 1
	.loc 1 265 17 is_stmt 0
	lw	s8,4(a7)
	.loc 1 269 21
	addi	t4,t0,10
	slli	s11,t4,16
	srai	t3,s11,16
	.loc 1 270 17 is_stmt 1
.LVL239:
	.loc 1 270 21 is_stmt 0
	li	a0,0
.LVL240:
	.loc 1 276 13 is_stmt 1
	.loc 1 263 28
	.loc 1 269 21 is_stmt 0
	slli	a5,t3,16
	.loc 1 266 17
	add	a2,a0,s8
	.loc 1 263 29
	addi	t1,t1,1
	.loc 1 263 21 is_stmt 1
	.loc 1 263 9 is_stmt 0
	addi	a7,a7,4
	.loc 1 265 13 is_stmt 1
	.loc 1 266 13
	.loc 1 267 13
	.loc 1 269 21 is_stmt 0
	srli	s9,a5,16
	.loc 1 267 16
	blt	s2,a2,.L92
.LVL241:
.L439:
	.loc 1 274 17 is_stmt 1
	.loc 1 274 41 is_stmt 0
	sgt	t5,s8,s0
	.loc 1 265 17
	lw	s10,4(a7)
	.loc 1 274 21
	add	s4,s9,t5
	slli	ra,s4,16
	srai	s5,ra,16
	.loc 1 276 13 is_stmt 1
	.loc 1 263 28
	.loc 1 263 21
	.loc 1 265 13
	.loc 1 266 13
	.loc 1 269 21 is_stmt 0
	slli	t0,s5,16
	.loc 1 266 17
	add	t2,a2,s10
	.loc 1 267 13 is_stmt 1
	.loc 1 269 21 is_stmt 0
	srli	t6,t0,16
	.loc 1 267 16
	blt	s2,t2,.L441
.L350:
	.loc 1 274 17 is_stmt 1
	.loc 1 274 41 is_stmt 0
	sgt	a6,s10,s8
	.loc 1 274 21
	add	t4,t6,a6
	slli	s11,t4,16
	.loc 1 265 17
	lw	a6,8(a7)
	.loc 1 274 21
	srai	t3,s11,16
	.loc 1 276 13 is_stmt 1
	.loc 1 263 28
	.loc 1 263 21
	.loc 1 265 13
.LVL242:
	.loc 1 266 13
	.loc 1 269 21 is_stmt 0
	slli	a2,t3,16
	srli	a5,a2,16
	.loc 1 266 17
	add	a2,t2,a6
	.loc 1 267 13 is_stmt 1
	.loc 1 267 16 is_stmt 0
	blt	s2,a2,.L442
.LVL243:
.L352:
	.loc 1 274 17 is_stmt 1
	.loc 1 274 41 is_stmt 0
	sgt	s9,a6,s10
	.loc 1 274 21
	add	t5,a5,s9
	slli	s4,t5,16
	.loc 1 263 29
	addi	t1,t1,3
	.loc 1 274 21
	srai	a0,s4,16
.LVL244:
	.loc 1 276 13 is_stmt 1
	.loc 1 263 28
	.loc 1 263 21
	.loc 1 263 9 is_stmt 0
	addi	a7,a7,12
	bgtu	s1,t1,.L32
.LVL245:
.L342:
	.loc 1 261 24 is_stmt 1
	.loc 1 261 25 is_stmt 0
	addi	a3,a3,1
.LVL246:
	.loc 1 261 17 is_stmt 1
	.loc 1 261 5 is_stmt 0
	add	a4,a4,s1
	bgtu	s1,a3,.L29
	.loc 1 279 5 is_stmt 1
.LVL247:
.LBE111:
.LBE110:
	.loc 1 173 11 is_stmt 0
	call	crc16
.LVL248:
	lw	s6,4(sp)
	mv	t3,a0
.LVL249:
	.loc 1 178 5 is_stmt 1
.LBB117:
.LBB118:
	.loc 1 306 17
.LBE118:
.LBE117:
	.loc 1 173 11 is_stmt 0
	li	s2,0
	li	s7,0
.LVL250:
.L36:
.LBB121:
.LBB119:
	.loc 1 308 21 is_stmt 1
	slli	a1,s2,1
	add	s0,s6,a1
	.loc 1 310 26 is_stmt 0
	lhu	s10,0(s0)
	addi	t0,s1,-1
	.loc 1 308 29
	li	a4,1
	.loc 1 310 26
	sub	t6,s10,s3
	sh	t6,0(s0)
	andi	t2,t0,7
.LVL251:
	.loc 1 310 13 is_stmt 1
	.loc 1 308 28
	.loc 1 308 21
	.loc 1 308 9 is_stmt 0
	addi	a5,s0,2
	bgeu	a4,s1,.L339
	beq	t2,zero,.L34
	beq	t2,a4,.L289
	li	t4,2
	beq	t2,t4,.L290
	li	s11,3
	beq	t2,s11,.L291
	li	a0,4
	beq	t2,a0,.L292
	li	s8,5
	beq	t2,s8,.L293
	li	a6,6
	beq	t2,a6,.L294
	.loc 1 310 13 is_stmt 1
	.loc 1 310 26 is_stmt 0
	lhu	a2,2(s0)
	.loc 1 308 29
	li	a4,2
	.loc 1 308 9
	addi	a5,s0,4
	.loc 1 310 26
	sub	s9,a2,s3
	sh	s9,2(s0)
	.loc 1 308 28 is_stmt 1
.LVL252:
	.loc 1 308 21
.L294:
	.loc 1 310 13
	.loc 1 310 26 is_stmt 0
	lhu	t5,0(a5)
	.loc 1 308 29
	addi	a4,a4,1
	.loc 1 308 9
	addi	a5,a5,2
	.loc 1 310 26
	sub	s4,t5,s3
	sh	s4,-2(a5)
	.loc 1 308 28 is_stmt 1
	.loc 1 308 21
.L293:
	.loc 1 310 13
	.loc 1 310 26 is_stmt 0
	lhu	ra,0(a5)
	.loc 1 308 29
	addi	a4,a4,1
	.loc 1 308 9
	addi	a5,a5,2
	.loc 1 310 26
	sub	s5,ra,s3
	sh	s5,-2(a5)
	.loc 1 308 28 is_stmt 1
	.loc 1 308 21
.L292:
	.loc 1 310 13
	.loc 1 310 26 is_stmt 0
	lhu	t1,0(a5)
	.loc 1 308 29
	addi	a4,a4,1
	.loc 1 308 9
	addi	a5,a5,2
	.loc 1 310 26
	sub	a7,t1,s3
	sh	a7,-2(a5)
	.loc 1 308 28 is_stmt 1
	.loc 1 308 21
.L291:
	.loc 1 310 13
	.loc 1 310 26 is_stmt 0
	lhu	a3,0(a5)
	.loc 1 308 29
	addi	a4,a4,1
	.loc 1 308 9
	addi	a5,a5,2
	.loc 1 310 26
	sub	a1,a3,s3
	sh	a1,-2(a5)
	.loc 1 308 28 is_stmt 1
	.loc 1 308 21
.L290:
	.loc 1 310 13
	.loc 1 310 26 is_stmt 0
	lhu	s0,0(a5)
	.loc 1 308 29
	addi	a4,a4,1
	.loc 1 308 9
	addi	a5,a5,2
	.loc 1 310 26
	sub	s10,s0,s3
	sh	s10,-2(a5)
	.loc 1 308 28 is_stmt 1
	.loc 1 308 21
.L289:
	.loc 1 310 13
	.loc 1 310 26 is_stmt 0
	lhu	t0,0(a5)
	.loc 1 308 9
	addi	a5,a5,2
	.loc 1 308 29
	addi	a4,a4,1
	.loc 1 310 26
	sub	t6,t0,s3
	sh	t6,-2(a5)
	.loc 1 308 28 is_stmt 1
	.loc 1 308 21
	.loc 1 308 9 is_stmt 0
	bgeu	a4,s1,.L339
.L34:
	.loc 1 310 13 is_stmt 1
	.loc 1 310 26 is_stmt 0
	lhu	t2,0(a5)
	lhu	t4,2(a5)
	lhu	s11,4(a5)
	lhu	s8,6(a5)
	lhu	a0,8(a5)
	lhu	s9,10(a5)
	lhu	a2,12(a5)
	lhu	s4,14(a5)
	sub	ra,t2,s3
	sub	s5,t4,s3
	sub	t5,s11,s3
	sub	a6,s8,s3
	sub	t1,a0,s3
	sub	a7,s9,s3
	sub	a1,a2,s3
	sub	a3,s4,s3
	sh	ra,0(a5)
	.loc 1 308 28 is_stmt 1
	.loc 1 308 21
	.loc 1 310 13
	.loc 1 310 26 is_stmt 0
	sh	s5,2(a5)
	.loc 1 308 28 is_stmt 1
	.loc 1 308 21
	.loc 1 310 13
	.loc 1 310 26 is_stmt 0
	sh	t5,4(a5)
	.loc 1 308 28 is_stmt 1
	.loc 1 308 21
	.loc 1 310 13
	.loc 1 310 26 is_stmt 0
	sh	a6,6(a5)
	.loc 1 308 28 is_stmt 1
	.loc 1 308 21
	.loc 1 310 13
	.loc 1 310 26 is_stmt 0
	sh	t1,8(a5)
	.loc 1 308 28 is_stmt 1
	.loc 1 308 21
	.loc 1 310 13
	.loc 1 310 26 is_stmt 0
	sh	a7,10(a5)
	.loc 1 308 28 is_stmt 1
	.loc 1 308 21
	.loc 1 310 13
	.loc 1 310 26 is_stmt 0
	sh	a1,12(a5)
	.loc 1 308 28 is_stmt 1
	.loc 1 308 21
	.loc 1 310 13
	.loc 1 310 26 is_stmt 0
	sh	a3,14(a5)
	.loc 1 308 28 is_stmt 1
.LVL253:
	.loc 1 308 29 is_stmt 0
	addi	a4,a4,8
.LVL254:
	.loc 1 308 21 is_stmt 1
	.loc 1 308 9 is_stmt 0
	addi	a5,a5,16
	bltu	a4,s1,.L34
.LVL255:
.L339:
	.loc 1 306 24 is_stmt 1
	.loc 1 306 25 is_stmt 0
	addi	s7,s7,1
.LVL256:
	.loc 1 306 17 is_stmt 1
	.loc 1 306 5 is_stmt 0
	add	s2,s2,s1
	bltu	s7,s1,.L36
.LVL257:
.L35:
.LBE119:
.LBE121:
	.loc 1 179 5 is_stmt 1
	.loc 1 180 1 is_stmt 0
	lw	ra,92(sp)
	.cfi_remember_state
	.cfi_restore 1
	lw	s0,88(sp)
	.cfi_restore 8
	.loc 1 179 12
	slli	s1,t3,16
	.loc 1 180 1
	lw	s2,80(sp)
	.cfi_restore 18
	lw	s3,76(sp)
	.cfi_restore 19
	lw	s4,72(sp)
	.cfi_restore 20
	lw	s5,68(sp)
	.cfi_restore 21
	lw	s6,64(sp)
	.cfi_restore 22
	lw	s7,60(sp)
	.cfi_restore 23
	lw	s8,56(sp)
	.cfi_restore 24
	lw	s9,52(sp)
	.cfi_restore 25
	lw	s10,48(sp)
	.cfi_restore 26
	lw	s11,44(sp)
	.cfi_restore 27
	.loc 1 179 12
	srai	a0,s1,16
	.loc 1 180 1
	lw	s1,84(sp)
	.cfi_restore 9
	addi	sp,sp,96
	.cfi_def_cfa_offset 0
.LVL258:
	jr	ra
.LVL259:
.L433:
	.cfi_restore_state
.LBB122:
.LBB77:
	.loc 1 274 17 is_stmt 1
	.loc 1 274 41 is_stmt 0
	sgt	a0,t3,s8
	.loc 1 274 21
	add	a6,t6,a0
.LVL260:
	slli	t4,a6,16
	srai	a7,t4,16
	j	.L354
.LVL261:
.L438:
.LBE77:
.LBE122:
.LBB123:
.LBB112:
	.loc 1 274 17 is_stmt 1
	.loc 1 274 41 is_stmt 0
	sgt	t3,a6,t0
	.loc 1 274 21
	add	t1,s11,t3
.LVL262:
	slli	a0,t1,16
	srai	a0,a0,16
	j	.L341
.LVL263:
.L428:
.LBE112:
.LBE123:
.LBB124:
.LBB62:
	.loc 1 274 17 is_stmt 1
	.loc 1 274 41 is_stmt 0
	sgt	s10,a7,t0
	.loc 1 274 21
	add	a5,t3,s10
.LVL264:
	slli	s5,a5,16
	srai	a0,s5,16
	j	.L367
.LVL265:
.L360:
.LBE62:
.LBE124:
.LBB125:
.LBB78:
	.loc 1 274 17 is_stmt 1
	.loc 1 274 41 is_stmt 0
	sgt	s4,t3,s11
	.loc 1 274 21
	add	t1,s5,s4
.LVL266:
	slli	a7,t1,16
	srai	a7,a7,16
	j	.L361
.LVL267:
.L347:
.LBE78:
.LBE125:
.LBB126:
.LBB113:
	.loc 1 274 17 is_stmt 1
	.loc 1 274 41 is_stmt 0
	sgt	t5,a6,a5
	.loc 1 274 21
	add	s4,s9,t5
.LVL268:
	slli	ra,s4,16
	srai	a0,ra,16
	j	.L348
.LVL269:
.L373:
.LBE113:
.LBE126:
.LBB127:
.LBB63:
	.loc 1 274 17 is_stmt 1
	.loc 1 274 41 is_stmt 0
	sgt	s4,a7,t4
	.loc 1 274 21
	add	t5,t1,s4
.LVL270:
	slli	s6,t5,16
	srai	a0,s6,16
	j	.L374
.LVL271:
.L371:
	.loc 1 274 17 is_stmt 1
	.loc 1 274 41 is_stmt 0
	sgt	s10,a7,t6
	.loc 1 274 21
	add	a5,t3,s10
.LVL272:
	slli	s5,a5,16
	srai	a0,s5,16
	j	.L372
.LVL273:
.L345:
.LBE63:
.LBE127:
.LBB128:
.LBB114:
	.loc 1 274 17 is_stmt 1
	.loc 1 274 41 is_stmt 0
	sgt	t4,a6,t0
	.loc 1 274 21
	add	s11,t2,t4
.LVL274:
	slli	t3,s11,16
	srai	a0,t3,16
	j	.L346
.LVL275:
.L358:
.LBE114:
.LBE128:
.LBB129:
.LBB79:
	.loc 1 274 17 is_stmt 1
	.loc 1 274 41 is_stmt 0
	sgt	t0,t3,t2
	.loc 1 274 21
	add	t6,s9,t0
.LVL276:
	slli	a6,t6,16
	srai	a7,a6,16
	j	.L359
.LVL277:
.L343:
.LBE79:
.LBE129:
.LBB130:
.LBB115:
	.loc 1 274 17 is_stmt 1
	.loc 1 274 41 is_stmt 0
	sgt	ra,a6,s9
	.loc 1 274 21
	add	s5,s4,ra
.LVL278:
	slli	s6,s5,16
	srai	a0,s6,16
	j	.L344
.LVL279:
.L356:
.LBE115:
.LBE130:
.LBB131:
.LBB80:
	.loc 1 274 17 is_stmt 1
	.loc 1 274 41 is_stmt 0
	sgt	a7,t3,s5
	.loc 1 274 21
	add	s6,t1,a7
.LVL280:
	slli	t5,s6,16
	srai	a7,t5,16
	j	.L357
.LVL281:
.L369:
.LBE80:
.LBE131:
.LBB132:
.LBB64:
	.loc 1 274 17 is_stmt 1
	.loc 1 274 41 is_stmt 0
	sgt	t5,a7,s8
	.loc 1 274 21
	add	s6,s4,t5
.LVL282:
	slli	t2,s6,16
	srai	a0,t2,16
	j	.L370
.LVL283:
.L381:
.LBE64:
.LBE132:
.LBB133:
.LBB50:
	.loc 1 274 17 is_stmt 1
	.loc 1 274 41 is_stmt 0
	sgt	a5,t4,a2
	.loc 1 274 21
	add	t0,t5,a5
.LVL284:
	slli	t6,t0,16
	srai	a0,t6,16
	j	.L382
.LVL285:
.L2:
.LBE50:
.LBE133:
.LBB134:
.LBB45:
	.loc 1 290 17 is_stmt 1
.LBE45:
.LBE134:
.LBB135:
.LBB51:
	.loc 1 261 17
	.loc 1 279 5
.LBE51:
.LBE135:
	.loc 1 158 11 is_stmt 0
	li	a1,0
.LVL286:
	call	crc16
.LVL287:
	mv	a1,a0
.LVL288:
	.loc 1 162 5 is_stmt 1
.LBB136:
.LBB56:
	.loc 1 323 5
	.loc 1 324 5
	.loc 1 324 17
.LBE56:
.LBE136:
.LBB137:
.LBB65:
	.loc 1 261 17
	.loc 1 279 5
.LBE65:
.LBE137:
	.loc 1 163 11 is_stmt 0
	li	a0,0
	call	crc16
.LVL289:
	mv	a1,a0
.LVL290:
	.loc 1 167 5 is_stmt 1
.LBB138:
.LBB70:
	.loc 1 342 5
	.loc 1 343 5
	.loc 1 343 17
.LBE70:
.LBE138:
.LBB139:
.LBB81:
	.loc 1 261 17
	.loc 1 279 5
.LBE81:
.LBE139:
	.loc 1 168 11 is_stmt 0
	li	a0,0
	call	crc16
.LVL291:
	mv	a1,a0
.LVL292:
	.loc 1 172 5 is_stmt 1
.LBB140:
.LBB106:
	.loc 1 364 5
	.loc 1 365 5
	.loc 1 365 17
.LBE106:
.LBE140:
.LBB141:
.LBB116:
	.loc 1 261 17
	.loc 1 279 5
.LBE116:
.LBE141:
	.loc 1 173 11 is_stmt 0
	li	a0,0
	call	crc16
.LVL293:
	mv	t3,a0
.LVL294:
	.loc 1 178 5 is_stmt 1
.LBB142:
.LBB120:
	.loc 1 306 17
	j	.L35
.LBE120:
.LBE142:
	.cfi_endproc
.LFE4:
	.size	matrix_test, .-matrix_test
	.section	.text.core_bench_matrix,"ax",@progbits
	.align	2
	.globl	core_bench_matrix
	.type	core_bench_matrix, @function
core_bench_matrix:
.LFB3:
	.loc 1 111 1
	.cfi_startproc
.LVL295:
	.loc 1 112 5
	.loc 1 113 5
	.loc 1 114 5
	.loc 1 115 5
	.loc 1 116 5
	.loc 1 111 1 is_stmt 0
	addi	sp,sp,-16
	.cfi_def_cfa_offset 16
	sw	s0,8(sp)
	.loc 1 118 11
	lw	a3,8(a0)
	.cfi_offset 8, -8
	.loc 1 111 1
	mv	s0,a2
	mv	a4,a1
.LVL296:
	.loc 1 118 5 is_stmt 1
	.loc 1 118 11 is_stmt 0
	lw	a2,4(a0)
.LVL297:
	lw	a1,12(a0)
.LVL298:
	lw	a0,0(a0)
.LVL299:
	.loc 1 111 1
	sw	ra,12(sp)
	.cfi_offset 1, -4
	.loc 1 118 11
	call	matrix_test
.LVL300:
	mv	a1,s0
	.loc 1 121 1
	lw	s0,8(sp)
	.cfi_restore 8
	lw	ra,12(sp)
	.cfi_restore 1
	addi	sp,sp,16
	.cfi_def_cfa_offset 0
	.loc 1 118 11
	tail	crc16
.LVL301:
	.cfi_endproc
.LFE3:
	.size	core_bench_matrix, .-core_bench_matrix
	.section	.text.core_init_matrix,"ax",@progbits
	.align	2
	.globl	core_init_matrix
	.type	core_init_matrix, @function
core_init_matrix:
.LFB5:
	.loc 1 200 1 is_stmt 1
	.cfi_startproc
.LVL302:
	addi	sp,sp,-48
	.cfi_def_cfa_offset 48
	sw	s2,36(sp)
	sw	s0,44(sp)
	sw	s1,40(sp)
	sw	s3,32(sp)
	sw	s4,28(sp)
	sw	s5,24(sp)
	sw	s6,20(sp)
	sw	s7,16(sp)
	sw	s8,12(sp)
	sw	s9,8(sp)
	sw	s10,4(sp)
	.cfi_offset 18, -12
	.cfi_offset 8, -4
	.cfi_offset 9, -8
	.cfi_offset 19, -16
	.cfi_offset 20, -20
	.cfi_offset 21, -24
	.cfi_offset 22, -28
	.cfi_offset 23, -32
	.cfi_offset 24, -36
	.cfi_offset 25, -40
	.cfi_offset 26, -44
	.loc 1 200 1 is_stmt 0
	mv	a4,a0
	.loc 1 201 5 is_stmt 1
.LVL303:
	.loc 1 202 5
	.loc 1 203 5
	.loc 1 204 5
	.loc 1 205 5
	.loc 1 206 5
	.loc 1 207 5
	.loc 1 200 1 is_stmt 0
	mv	s2,a3
	.loc 1 207 8
	bne	a2,zero,.L446
	.loc 1 208 14
	li	a2,1
.LVL304:
.L446:
	.loc 1 209 11 is_stmt 1
	.loc 1 215 19 is_stmt 0
	addi	a1,a1,-1
.LVL305:
	andi	s0,a1,-4
	addi	s4,s0,4
	.loc 1 209 11
	li	a5,0
	beq	a4,zero,.L495
.LVL306:
.L447:
	.loc 1 211 9 is_stmt 1
	.loc 1 211 9
	.loc 1 211 9
	.loc 1 211 9
	.loc 1 211 9
	.loc 1 211 9
	.loc 1 211 9
	.loc 1 211 9
	.loc 1 211 10 is_stmt 0
	addi	t0,a5,1
	.loc 1 212 9 is_stmt 1
.LVL307:
	.loc 1 209 11
	.loc 1 212 15 is_stmt 0
	mul	a3,t0,t0
	.loc 1 211 10
	addi	a6,a5,2
	.loc 1 212 9 is_stmt 1
	.loc 1 209 11
	.loc 1 211 10 is_stmt 0
	addi	t3,a5,3
	.loc 1 212 9 is_stmt 1
	.loc 1 209 11
	.loc 1 211 10 is_stmt 0
	addi	t5,a5,4
	.loc 1 212 9 is_stmt 1
	.loc 1 209 11
	.loc 1 211 10 is_stmt 0
	addi	t4,a5,5
	.loc 1 212 9 is_stmt 1
	.loc 1 209 11
	.loc 1 211 10 is_stmt 0
	addi	a7,a5,6
	.loc 1 212 9 is_stmt 1
	.loc 1 209 11
	.loc 1 211 10 is_stmt 0
	addi	t1,a5,7
	.loc 1 212 9 is_stmt 1
	.loc 1 209 11
	mv	a0,a5
	.loc 1 211 10 is_stmt 0
	addi	a5,a5,8
	.loc 1 212 11
	slli	t2,a3,3
	.loc 1 209 11
	bleu	a4,t2,.L490
	.loc 1 212 15
	mul	s3,a6,a6
	mv	a0,t0
	.loc 1 212 11
	slli	s6,s3,3
	.loc 1 209 11
	bleu	a4,s6,.L490
	.loc 1 212 15
	mul	s7,t3,t3
	mv	a0,a6
	.loc 1 212 11
	slli	s8,s7,3
	.loc 1 209 11
	bleu	a4,s8,.L490
	.loc 1 212 15
	mul	s9,t5,t5
	mv	a0,t3
	.loc 1 212 11
	slli	s10,s9,3
	.loc 1 209 11
	bleu	a4,s10,.L490
	.loc 1 212 15
	mul	t6,t4,t4
	mv	a0,t5
	.loc 1 212 11
	slli	a1,t6,3
	.loc 1 209 11
	bleu	a4,a1,.L490
	.loc 1 212 15
	mul	s0,a7,a7
	mv	a0,t4
	.loc 1 212 11
	slli	s5,s0,3
	.loc 1 209 11
	bleu	a4,s5,.L490
	.loc 1 212 15
	mul	s1,t1,t1
	mv	a0,a7
	.loc 1 212 11
	slli	t0,s1,3
	.loc 1 209 11
	bleu	a4,t0,.L490
	.loc 1 212 15
	mul	a6,a5,a5
	mv	a0,t1
	.loc 1 212 9 is_stmt 1
	.loc 1 209 11
	.loc 1 212 11 is_stmt 0
	slli	t3,a6,3
	.loc 1 209 11
	bgtu	a4,t3,.L447
.L490:
	.loc 1 214 5 is_stmt 1
.LVL308:
	.loc 1 215 5
	.loc 1 216 5
	.loc 1 216 15 is_stmt 0
	mul	a4,a0,a0
.LVL309:
	.loc 1 236 10
	mv	s5,a0
	.loc 1 216 11
	slli	s1,a4,1
	.loc 1 216 7
	add	s0,s4,s1
.LVL310:
	.loc 1 218 5 is_stmt 1
	.loc 1 218 17
	.loc 1 218 5 is_stmt 0
	beq	a0,zero,.L451
.LVL311:
.L450:
	.loc 1 222 26
	li	t4,65536
	.loc 1 216 11
	li	a3,0
	li	t2,0
	li	t6,1
	sub	t5,s4,s0
	.loc 1 222 26
	addi	t4,t4,-1
	.loc 1 229 18
	addi	s3,a0,-1
.LVL312:
.L455:
	.loc 1 220 21 is_stmt 1
	.loc 1 222 36 is_stmt 0
	mul	a2,a2,t6
	slli	a7,t6,16
	srli	a5,a7,16
	slli	t1,a3,1
	add	s6,t1,s0
	addi	s8,a0,-1
	andi	s9,s8,3
.LVL313:
	.loc 1 222 13 is_stmt 1
	.loc 1 228 26 is_stmt 0
	add	s7,t5,s6
	.loc 1 220 29
	li	t3,1
	.loc 1 229 18
	addi	a6,t6,1
	.loc 1 222 26
	srai	s10,a2,31
	srli	t0,s10,16
	add	a4,a2,t0
	and	a2,a4,t4
.LVL314:
	sub	a2,a2,t0
.LVL315:
	.loc 1 223 13 is_stmt 1
	.loc 1 223 34 is_stmt 0
	add	a7,a5,a2
	slli	t1,a7,16
	srli	s8,t1,16
.LVL316:
	.loc 1 224 13 is_stmt 1
	.loc 1 225 13
	.loc 1 226 33 is_stmt 0
	add	a5,s8,a5
	.loc 1 225 26
	sh	s8,0(s6)
	.loc 1 226 13 is_stmt 1
	.loc 1 227 13
	.loc 1 228 13
	.loc 1 227 26 is_stmt 0
	andi	s10,a5,0xff
	.loc 1 228 26
	sh	s10,0(s7)
	.loc 1 229 13 is_stmt 1
.LVL317:
	.loc 1 220 28
	.loc 1 220 21
	.loc 1 220 9 is_stmt 0
	addi	a1,s6,2
	bgeu	t3,a0,.L492
	beq	s9,zero,.L452
	beq	s9,t3,.L480
	li	s7,2
	beq	s9,s7,.L481
	.loc 1 222 13 is_stmt 1
	.loc 1 222 36 is_stmt 0
	mul	s9,a2,a6
	slli	a6,a6,16
.LVL318:
	srli	t0,a6,16
	.loc 1 228 26
	add	a7,t5,a1
	.loc 1 220 9
	addi	a1,s6,4
	.loc 1 229 18
	addi	a6,t6,2
	.loc 1 220 29
	li	t3,2
	.loc 1 222 26
	srai	a4,s9,31
	srli	t1,a4,16
	add	a2,s9,t1
.LVL319:
	and	s8,a2,t4
.LVL320:
	sub	a2,s8,t1
.LVL321:
	.loc 1 223 13 is_stmt 1
	.loc 1 223 34 is_stmt 0
	add	a5,t0,a2
	slli	s10,a5,16
	srli	s7,s10,16
	.loc 1 224 13 is_stmt 1
	.loc 1 225 13
	.loc 1 226 33 is_stmt 0
	add	s9,s7,t0
	.loc 1 225 26
	sh	s7,2(s6)
	.loc 1 226 13 is_stmt 1
	.loc 1 227 13
	.loc 1 228 13
	.loc 1 227 26 is_stmt 0
	andi	s6,s9,0xff
	.loc 1 228 26
	sh	s6,0(a7)
	.loc 1 229 13 is_stmt 1
.LVL322:
	.loc 1 220 28
	.loc 1 220 21
.L481:
	.loc 1 222 13
	.loc 1 222 36 is_stmt 0
	mul	t0,a2,a6
	slli	a7,a6,16
	srli	t1,a7,16
	.loc 1 228 26
	add	s8,t5,a1
	.loc 1 220 29
	addi	t3,t3,1
	.loc 1 223 34
	addi	a6,a6,1
	.loc 1 220 9
	addi	a1,a1,2
	.loc 1 222 26
	srai	a4,t0,31
	srli	a5,a4,16
	add	a2,t0,a5
.LVL323:
	and	s10,a2,t4
.LVL324:
	sub	a2,s10,a5
.LVL325:
	.loc 1 223 13 is_stmt 1
	.loc 1 223 34 is_stmt 0
	add	s7,t1,a2
	slli	s9,s7,16
	srli	s6,s9,16
	.loc 1 224 13 is_stmt 1
	.loc 1 225 13
	.loc 1 226 33 is_stmt 0
	add	t0,s6,t1
	.loc 1 225 26
	sh	s6,-2(a1)
	.loc 1 226 13 is_stmt 1
	.loc 1 227 13
	.loc 1 228 13
	.loc 1 227 26 is_stmt 0
	andi	a7,t0,0xff
	.loc 1 228 26
	sh	a7,0(s8)
	.loc 1 229 13 is_stmt 1
	.loc 1 220 28
	.loc 1 220 21
.L480:
	.loc 1 222 13
	.loc 1 222 36 is_stmt 0
	mul	t1,a2,a6
	slli	s8,a6,16
	srli	a5,s8,16
	.loc 1 228 26
	add	s10,t5,a1
	.loc 1 220 9
	addi	a1,a1,2
	.loc 1 220 29
	addi	t3,t3,1
	.loc 1 223 34
	addi	a6,a6,1
	.loc 1 222 26
	srai	a4,t1,31
	srli	s7,a4,16
	add	a2,t1,s7
.LVL326:
	and	s9,a2,t4
.LVL327:
	sub	a2,s9,s7
.LVL328:
	.loc 1 223 13 is_stmt 1
	.loc 1 223 34 is_stmt 0
	add	s6,a5,a2
	slli	t0,s6,16
	srli	a7,t0,16
	.loc 1 224 13 is_stmt 1
	.loc 1 225 13
	.loc 1 226 33 is_stmt 0
	add	t1,a7,a5
	.loc 1 225 26
	sh	a7,-2(a1)
	.loc 1 226 13 is_stmt 1
	.loc 1 227 13
	.loc 1 228 13
	.loc 1 227 26 is_stmt 0
	andi	s8,t1,0xff
	.loc 1 228 26
	sh	s8,0(s10)
	.loc 1 229 13 is_stmt 1
	.loc 1 220 28
	.loc 1 220 21
	.loc 1 220 9 is_stmt 0
	bgeu	t3,a0,.L492
.L452:
	.loc 1 222 13 is_stmt 1 discriminator 3
	.loc 1 222 36 is_stmt 0 discriminator 3
	mul	a2,a2,a6
.LVL329:
	.loc 1 229 18 discriminator 3
	addi	a5,a6,2
	addi	s6,a6,3
	slli	s10,a6,16
	srli	t0,s10,16
	slli	a7,a5,16
	slli	s10,s6,16
	srli	t1,a7,16
	srli	a7,s10,16
	addi	a4,a6,1
	.loc 1 222 26 discriminator 3
	srai	s10,a2,31
	srli	s10,s10,16
	add	a2,a2,s10
	and	a2,a2,t4
	sub	s10,a2,s10
	.loc 1 223 13 is_stmt 1 discriminator 3
	slli	s7,a4,16
	.loc 1 222 36 is_stmt 0 discriminator 3
	mul	a4,s10,a4
	.loc 1 223 34 discriminator 3
	add	a2,t0,s10
	slli	s10,a2,16
	srli	a2,s10,16
	.loc 1 224 13 is_stmt 1 discriminator 3
	.loc 1 225 13 discriminator 3
	.loc 1 226 33 is_stmt 0 discriminator 3
	add	t0,a2,t0
	.loc 1 228 26 discriminator 3
	add	s9,t5,a1
	.loc 1 225 26 discriminator 3
	sh	a2,0(a1)
	.loc 1 226 13 is_stmt 1 discriminator 3
.LVL330:
	.loc 1 227 13 discriminator 3
	.loc 1 228 13 discriminator 3
	.loc 1 227 26 is_stmt 0 discriminator 3
	andi	s10,t0,0xff
	.loc 1 228 26 discriminator 3
	sh	s10,0(s9)
	.loc 1 229 13 is_stmt 1 discriminator 3
	.loc 1 220 28 discriminator 3
	.loc 1 220 21 discriminator 3
	.loc 1 222 13 discriminator 3
	.loc 1 228 26 is_stmt 0 discriminator 3
	mv	s8,s9
	mv	a2,s9
	mv	t0,s9
.LVL331:
	.loc 1 222 26 discriminator 3
	srai	s9,a4,31
	srli	s10,s9,16
	add	a4,a4,s10
	and	s9,a4,t4
	sub	s10,s9,s10
	.loc 1 223 13 is_stmt 1 discriminator 3
	.loc 1 222 36 is_stmt 0 discriminator 3
	mul	a5,s10,a5
	srli	s7,s7,16
	.loc 1 223 34 discriminator 3
	add	a4,s7,s10
	slli	s9,a4,16
	srli	s10,s9,16
	.loc 1 224 13 is_stmt 1 discriminator 3
	.loc 1 225 13 discriminator 3
	.loc 1 226 33 is_stmt 0 discriminator 3
	add	s7,s10,s7
	.loc 1 225 26 discriminator 3
	sh	s10,2(a1)
	.loc 1 226 13 is_stmt 1 discriminator 3
	.loc 1 227 13 discriminator 3
	.loc 1 228 13 discriminator 3
	.loc 1 227 26 is_stmt 0 discriminator 3
	andi	a4,s7,0xff
	.loc 1 228 26 discriminator 3
	sh	a4,2(s8)
	.loc 1 229 13 is_stmt 1 discriminator 3
	.loc 1 220 28 discriminator 3
	.loc 1 220 21 discriminator 3
	.loc 1 222 13 discriminator 3
	.loc 1 220 9 is_stmt 0 discriminator 3
	addi	a1,a1,8
	.loc 1 222 26 discriminator 3
	srai	s8,a5,31
	srli	s9,s8,16
	add	a5,a5,s9
	and	s10,a5,t4
	sub	s7,s10,s9
	.loc 1 223 13 is_stmt 1 discriminator 3
	.loc 1 222 36 is_stmt 0 discriminator 3
	mul	s6,s7,s6
	.loc 1 223 34 discriminator 3
	add	a4,t1,s7
	slli	s8,a4,16
	srli	s9,s8,16
	.loc 1 224 13 is_stmt 1 discriminator 3
	.loc 1 225 13 discriminator 3
	.loc 1 226 33 is_stmt 0 discriminator 3
	add	t1,s9,t1
	.loc 1 225 26 discriminator 3
	sh	s9,-4(a1)
	.loc 1 226 13 is_stmt 1 discriminator 3
	.loc 1 227 13 discriminator 3
	.loc 1 228 13 discriminator 3
	.loc 1 227 26 is_stmt 0 discriminator 3
	andi	a5,t1,0xff
	.loc 1 228 26 discriminator 3
	sh	a5,4(a2)
	.loc 1 229 13 is_stmt 1 discriminator 3
	.loc 1 220 28 discriminator 3
	.loc 1 220 21 discriminator 3
	.loc 1 222 13 discriminator 3
	.loc 1 220 29 is_stmt 0 discriminator 3
	addi	t3,t3,4
	.loc 1 229 18 discriminator 3
	addi	a6,a6,4
	.loc 1 222 26 discriminator 3
	srai	a2,s6,31
	srli	s10,a2,16
	add	s7,s6,s10
	and	s6,s7,t4
.LVL332:
	sub	a2,s6,s10
.LVL333:
	.loc 1 223 13 is_stmt 1 discriminator 3
	.loc 1 223 34 is_stmt 0 discriminator 3
	add	a4,a7,a2
	slli	s8,a4,16
	srli	s9,s8,16
	.loc 1 224 13 is_stmt 1 discriminator 3
	.loc 1 225 13 discriminator 3
	.loc 1 226 33 is_stmt 0 discriminator 3
	add	a7,s9,a7
	.loc 1 225 26 discriminator 3
	sh	s9,-2(a1)
	.loc 1 226 13 is_stmt 1 discriminator 3
	.loc 1 227 13 discriminator 3
	.loc 1 228 13 discriminator 3
	.loc 1 227 26 is_stmt 0 discriminator 3
	andi	t1,a7,0xff
	.loc 1 228 26 discriminator 3
	sh	t1,6(t0)
	.loc 1 229 13 is_stmt 1 discriminator 3
.LVL334:
	.loc 1 220 28 discriminator 3
	.loc 1 220 21 discriminator 3
	.loc 1 220 9 is_stmt 0 discriminator 3
	bltu	t3,a0,.L452
.LVL335:
.L492:
	addi	t6,t6,1
	.loc 1 229 18
	li	t3,0
	beq	a0,zero,.L454
	.loc 1 229 18 discriminator 2
	mv	t3,s3
.L454:
	.loc 1 218 25 discriminator 2
	addi	t2,t2,1
.LVL336:
	.loc 1 229 18 discriminator 2
	add	t6,t3,t6
	.loc 1 218 24 is_stmt 1 discriminator 2
.LVL337:
	.loc 1 218 17 discriminator 2
	.loc 1 218 5 is_stmt 0 discriminator 2
	add	a3,a3,a0
	bltu	t2,a0,.L455
.LVL338:
.L451:
	.loc 1 233 5 is_stmt 1
	.loc 1 235 22 is_stmt 0
	add	s1,s0,s1
	addi	a3,s1,-1
	.loc 1 234 10
	sw	s0,8(s2)
	.loc 1 235 22
	andi	t2,a3,-4
	.loc 1 242 1
	lw	s0,44(sp)
	.cfi_remember_state
	.cfi_restore 8
	.loc 1 235 22
	addi	t5,t2,4
	.loc 1 233 10
	sw	s4,4(s2)
	.loc 1 234 5 is_stmt 1
	.loc 1 235 5
	.loc 1 236 10 is_stmt 0
	sw	s5,0(s2)
	.loc 1 235 10
	sw	t5,12(s2)
	.loc 1 236 5 is_stmt 1
	.loc 1 241 5
	.loc 1 242 1 is_stmt 0
	lw	s1,40(sp)
	.cfi_restore 9
	lw	s2,36(sp)
	.cfi_restore 18
.LVL339:
	lw	s3,32(sp)
	.cfi_restore 19
	lw	s4,28(sp)
	.cfi_restore 20
	lw	s5,24(sp)
	.cfi_restore 21
	lw	s6,20(sp)
	.cfi_restore 22
	lw	s7,16(sp)
	.cfi_restore 23
	lw	s8,12(sp)
	.cfi_restore 24
	lw	s9,8(sp)
	.cfi_restore 25
	lw	s10,4(sp)
	.cfi_restore 26
	addi	sp,sp,48
	.cfi_def_cfa_offset 0
	jr	ra
.LVL340:
.L495:
	.cfi_restore_state
	.loc 1 214 5 is_stmt 1
	.loc 1 215 5
	.loc 1 216 5
	.loc 1 216 7 is_stmt 0
	addi	s0,s0,6
.LVL341:
	.loc 1 218 5 is_stmt 1
	.loc 1 218 17
	.loc 1 216 7 is_stmt 0
	li	s5,-1
	.loc 1 214 7
	li	a0,-1
.LVL342:
	.loc 1 216 11
	li	s1,2
	j	.L450
	.cfi_endproc
.LFE5:
	.size	core_init_matrix, .-core_init_matrix
	.section	.text.matrix_sum,"ax",@progbits
	.align	2
	.globl	matrix_sum
	.type	matrix_sum, @function
matrix_sum:
.LFB6:
	.loc 1 257 1 is_stmt 1
	.cfi_startproc
.LVL343:
	.loc 1 258 5
	.loc 1 259 5
	.loc 1 260 5
	.loc 1 261 5
	.loc 1 261 17
	.loc 1 257 1 is_stmt 0
	mv	a6,a0
	.loc 1 261 5
	beq	a0,zero,.L502
	neg	a7,a0
	slli	a4,a0,2
	add	a4,a1,a4
	slli	t1,a7,2
	.loc 1 261 12
	li	a1,0
.LVL344:
	.loc 1 259 12
	li	a0,0
.LVL345:
	.loc 1 258 21
	li	t6,0
	.loc 1 258 12
	li	t4,0
	.loc 1 261 5
	slli	a7,a7,3
.LVL346:
.L501:
	.loc 1 263 21 is_stmt 1
	add	a3,t1,a4
	sub	a5,a4,a3
	addi	t0,a5,-4
	srli	t2,t0,2
	addi	t3,t2,1
	andi	a5,t3,7
	.loc 1 258 12 is_stmt 0
	mv	t3,a3
	beq	a5,zero,.L500
	li	t5,1
	beq	a5,t5,.L540
	li	t0,2
	beq	a5,t0,.L541
	li	t2,3
	beq	a5,t2,.L542
	li	t5,4
	beq	a5,t5,.L543
	li	t0,5
	beq	a5,t0,.L544
	li	t2,6
	beq	a5,t2,.L545
.LVL347:
	.loc 1 265 13 is_stmt 1
	mv	t3,t6
.LVL348:
	.loc 1 265 17 is_stmt 0
	lw	t6,0(a3)
.LVL349:
	.loc 1 266 13 is_stmt 1
	.loc 1 269 21 is_stmt 0
	slli	a0,a0,16
	srli	t5,a0,16
	.loc 1 266 17
	add	t4,t4,t6
.LVL350:
	.loc 1 267 13 is_stmt 1
	.loc 1 267 16 is_stmt 0
	bge	a2,t4,.L549
	.loc 1 269 17 is_stmt 1
	.loc 1 269 21 is_stmt 0
	addi	t4,t5,10
.LVL351:
	slli	t3,t4,16
	srai	a0,t3,16
	.loc 1 270 17 is_stmt 1
.LVL352:
	.loc 1 270 21 is_stmt 0
	li	t4,0
.LVL353:
.L550:
	.loc 1 276 13 is_stmt 1
	.loc 1 263 28
	.loc 1 263 21
	.loc 1 263 9 is_stmt 0
	addi	t3,a3,4
.LVL354:
.L545:
	.loc 1 265 13 is_stmt 1
	mv	t5,t6
.LVL355:
	.loc 1 265 17 is_stmt 0
	lw	t6,0(t3)
.LVL356:
	.loc 1 266 13 is_stmt 1
	.loc 1 269 21 is_stmt 0
	slli	a0,a0,16
	srli	t0,a0,16
	.loc 1 266 17
	add	t4,t4,t6
.LVL357:
	.loc 1 267 13 is_stmt 1
	.loc 1 267 16 is_stmt 0
	bge	a2,t4,.L551
	.loc 1 269 17 is_stmt 1
	.loc 1 269 21 is_stmt 0
	addi	t4,t0,10
.LVL358:
	slli	a0,t4,16
	srai	a0,a0,16
	.loc 1 270 17 is_stmt 1
.LVL359:
	.loc 1 270 21 is_stmt 0
	li	t4,0
.LVL360:
.L552:
	.loc 1 276 13 is_stmt 1
	.loc 1 263 28
	.loc 1 263 21
	.loc 1 263 9 is_stmt 0
	addi	t3,t3,4
.LVL361:
.L544:
	.loc 1 265 13 is_stmt 1
	mv	t0,t6
.LVL362:
	.loc 1 265 17 is_stmt 0
	lw	t6,0(t3)
.LVL363:
	.loc 1 266 13 is_stmt 1
	.loc 1 269 21 is_stmt 0
	slli	a5,a0,16
	srli	t2,a5,16
	.loc 1 266 17
	add	t4,t4,t6
.LVL364:
	.loc 1 267 13 is_stmt 1
	.loc 1 267 16 is_stmt 0
	bge	a2,t4,.L553
	.loc 1 269 17 is_stmt 1
	.loc 1 269 21 is_stmt 0
	addi	t4,t2,10
.LVL365:
	slli	a5,t4,16
	srai	a0,a5,16
	.loc 1 270 17 is_stmt 1
.LVL366:
	.loc 1 270 21 is_stmt 0
	li	t4,0
.LVL367:
.L554:
	.loc 1 276 13 is_stmt 1
	.loc 1 263 28
	.loc 1 263 21
	.loc 1 263 9 is_stmt 0
	addi	t3,t3,4
.LVL368:
.L543:
	.loc 1 265 13 is_stmt 1
	mv	t2,t6
.LVL369:
	.loc 1 265 17 is_stmt 0
	lw	t6,0(t3)
.LVL370:
	.loc 1 266 13 is_stmt 1
	.loc 1 269 21 is_stmt 0
	slli	t5,a0,16
	srli	a0,t5,16
	.loc 1 266 17
	add	t4,t4,t6
.LVL371:
	.loc 1 267 13 is_stmt 1
	.loc 1 267 16 is_stmt 0
	bge	a2,t4,.L555
	.loc 1 269 17 is_stmt 1
	.loc 1 269 21 is_stmt 0
	addi	t4,a0,10
.LVL372:
	slli	t5,t4,16
	srai	a0,t5,16
	.loc 1 270 17 is_stmt 1
.LVL373:
	.loc 1 270 21 is_stmt 0
	li	t4,0
.LVL374:
.L556:
	.loc 1 276 13 is_stmt 1
	.loc 1 263 28
	.loc 1 263 21
	.loc 1 263 9 is_stmt 0
	addi	t3,t3,4
.LVL375:
.L542:
	.loc 1 265 13 is_stmt 1
	mv	t0,t6
.LVL376:
	.loc 1 265 17 is_stmt 0
	lw	t6,0(t3)
.LVL377:
	.loc 1 266 13 is_stmt 1
	.loc 1 269 21 is_stmt 0
	slli	a0,a0,16
	srli	t2,a0,16
	.loc 1 266 17
	add	t4,t4,t6
.LVL378:
	.loc 1 267 13 is_stmt 1
	.loc 1 267 16 is_stmt 0
	bge	a2,t4,.L557
	.loc 1 269 17 is_stmt 1
	.loc 1 269 21 is_stmt 0
	addi	t4,t2,10
.LVL379:
	slli	a0,t4,16
	srai	a0,a0,16
	.loc 1 270 17 is_stmt 1
.LVL380:
	.loc 1 270 21 is_stmt 0
	li	t4,0
.LVL381:
.L558:
	.loc 1 276 13 is_stmt 1
	.loc 1 263 28
	.loc 1 263 21
	.loc 1 263 9 is_stmt 0
	addi	t3,t3,4
.LVL382:
.L541:
	.loc 1 265 13 is_stmt 1
	mv	t2,t6
.LVL383:
	.loc 1 265 17 is_stmt 0
	lw	t6,0(t3)
.LVL384:
	.loc 1 266 13 is_stmt 1
	.loc 1 269 21 is_stmt 0
	slli	a5,a0,16
	srli	t5,a5,16
	.loc 1 266 17
	add	t4,t4,t6
.LVL385:
	.loc 1 267 13 is_stmt 1
	.loc 1 267 16 is_stmt 0
	bge	a2,t4,.L559
	.loc 1 269 17 is_stmt 1
	.loc 1 269 21 is_stmt 0
	addi	t4,t5,10
.LVL386:
	slli	a5,t4,16
	srai	a0,a5,16
	.loc 1 270 17 is_stmt 1
.LVL387:
	.loc 1 270 21 is_stmt 0
	li	t4,0
.LVL388:
.L560:
	.loc 1 276 13 is_stmt 1
	.loc 1 263 28
	.loc 1 263 21
	.loc 1 263 9 is_stmt 0
	addi	t3,t3,4
.LVL389:
.L540:
	.loc 1 265 13 is_stmt 1
	mv	t5,t6
.LVL390:
	.loc 1 265 17 is_stmt 0
	lw	t6,0(t3)
.LVL391:
	.loc 1 266 13 is_stmt 1
	.loc 1 269 21 is_stmt 0
	slli	t0,a0,16
	srli	a0,t0,16
	.loc 1 266 17
	add	t4,t4,t6
.LVL392:
	.loc 1 267 13 is_stmt 1
	.loc 1 267 16 is_stmt 0
	bge	a2,t4,.L561
	.loc 1 269 17 is_stmt 1
	.loc 1 269 21 is_stmt 0
	addi	t4,a0,10
.LVL393:
	slli	t0,t4,16
	srai	a0,t0,16
	.loc 1 270 17 is_stmt 1
.LVL394:
	.loc 1 270 21 is_stmt 0
	li	t4,0
.LVL395:
.L562:
	.loc 1 276 13 is_stmt 1
	.loc 1 263 28
	.loc 1 263 21
	.loc 1 263 9 is_stmt 0
	addi	t3,t3,4
.LVL396:
	bne	a4,t3,.L500
.L563:
	.loc 1 261 24 is_stmt 1
	.loc 1 261 25 is_stmt 0
	addi	a1,a1,1
.LVL397:
	.loc 1 261 17 is_stmt 1
	.loc 1 261 5 is_stmt 0
	sub	a4,a3,a7
	bne	a6,a1,.L501
	ret
.LVL398:
.L578:
	.loc 1 274 17 is_stmt 1
	.loc 1 274 41 is_stmt 0
	slt	t6,t6,t2
	.loc 1 274 21
	add	a5,t5,t6
	.loc 1 265 17
	lw	t6,4(t3)
	.loc 1 274 21
	slli	t0,a5,16
	srai	t5,t0,16
	.loc 1 276 13 is_stmt 1
	.loc 1 263 28
	.loc 1 263 21
	.loc 1 269 21 is_stmt 0
	slli	a5,t5,16
	.loc 1 266 17
	add	a0,t4,t6
	.loc 1 263 9
	addi	t3,t3,4
	.loc 1 265 13 is_stmt 1
	.loc 1 266 13
	.loc 1 267 13
	.loc 1 269 21 is_stmt 0
	srli	t0,a5,16
	.loc 1 267 16
	bge	a2,a0,.L577
.L526:
	.loc 1 269 17 is_stmt 1
	.loc 1 265 17 is_stmt 0
	lw	t2,4(t3)
	.loc 1 269 21
	addi	t0,t0,10
	slli	a0,t0,16
	srai	a5,a0,16
	.loc 1 270 17 is_stmt 1
.LVL399:
	.loc 1 270 21 is_stmt 0
	li	a0,0
.LVL400:
	.loc 1 276 13 is_stmt 1
	.loc 1 263 28
	.loc 1 263 21
	.loc 1 265 13
	.loc 1 266 13
	.loc 1 269 21 is_stmt 0
	slli	t5,a5,16
	.loc 1 266 17
	add	t4,a0,t2
	.loc 1 267 13 is_stmt 1
	.loc 1 269 21 is_stmt 0
	srli	a5,t5,16
	.loc 1 267 16
	bge	a2,t4,.L565
.L579:
	.loc 1 269 17 is_stmt 1
	.loc 1 265 17 is_stmt 0
	lw	t6,8(t3)
	.loc 1 269 21
	addi	a5,a5,10
	slli	t4,a5,16
	srai	t5,t4,16
	.loc 1 270 17 is_stmt 1
.LVL401:
	.loc 1 270 21 is_stmt 0
	li	t4,0
.LVL402:
	.loc 1 276 13 is_stmt 1
	.loc 1 263 28
	.loc 1 263 21
	.loc 1 265 13
	.loc 1 266 13
	.loc 1 269 21 is_stmt 0
	slli	t0,t5,16
	.loc 1 266 17
	add	t4,t4,t6
	.loc 1 267 13 is_stmt 1
	.loc 1 269 21 is_stmt 0
	srli	a0,t0,16
	.loc 1 267 16
	bge	a2,t4,.L567
.L580:
	.loc 1 269 17 is_stmt 1
	.loc 1 265 17 is_stmt 0
	lw	t2,12(t3)
	.loc 1 269 21
	addi	a0,a0,10
	slli	t4,a0,16
	srai	t0,t4,16
	.loc 1 270 17 is_stmt 1
.LVL403:
	.loc 1 270 21 is_stmt 0
	li	t4,0
.LVL404:
	.loc 1 276 13 is_stmt 1
	.loc 1 263 28
	.loc 1 263 21
	.loc 1 265 13
	.loc 1 266 13
	.loc 1 269 21 is_stmt 0
	slli	t5,t0,16
	.loc 1 266 17
	add	t0,t4,t2
	.loc 1 267 13 is_stmt 1
	.loc 1 269 21 is_stmt 0
	srli	a5,t5,16
	.loc 1 267 16
	bge	a2,t0,.L569
.L581:
	.loc 1 269 17 is_stmt 1
	.loc 1 269 21 is_stmt 0
	addi	a5,a5,10
	.loc 1 265 17
	lw	t6,16(t3)
	.loc 1 269 21
	slli	t0,a5,16
	srai	t5,t0,16
	.loc 1 270 17 is_stmt 1
.LVL405:
	.loc 1 270 21 is_stmt 0
	li	t0,0
.LVL406:
	.loc 1 276 13 is_stmt 1
	.loc 1 263 28
	.loc 1 263 21
	.loc 1 265 13
	.loc 1 266 13
	.loc 1 269 21 is_stmt 0
	slli	a0,t5,16
	.loc 1 266 17
	add	t4,t0,t6
	.loc 1 267 13 is_stmt 1
	.loc 1 269 21 is_stmt 0
	srli	a5,a0,16
	.loc 1 267 16
	bge	a2,t4,.L571
.L582:
	.loc 1 269 17 is_stmt 1
	.loc 1 265 17 is_stmt 0
	lw	t2,20(t3)
	.loc 1 269 21
	addi	a5,a5,10
	slli	t4,a5,16
	srai	a0,t4,16
	.loc 1 270 17 is_stmt 1
.LVL407:
	.loc 1 270 21 is_stmt 0
	li	t4,0
.LVL408:
	.loc 1 276 13 is_stmt 1
	.loc 1 263 28
	.loc 1 263 21
	.loc 1 265 13
	.loc 1 266 13
	.loc 1 269 21 is_stmt 0
	slli	t5,a0,16
	.loc 1 266 17
	add	t4,t4,t2
	.loc 1 267 13 is_stmt 1
	.loc 1 269 21 is_stmt 0
	srli	t0,t5,16
	.loc 1 267 16
	bge	a2,t4,.L573
.L583:
	.loc 1 269 17 is_stmt 1
	.loc 1 265 17 is_stmt 0
	lw	t6,24(t3)
	.loc 1 269 21
	addi	t0,t0,10
	slli	t4,t0,16
	srai	t5,t4,16
	.loc 1 270 17 is_stmt 1
.LVL409:
	.loc 1 270 21 is_stmt 0
	li	t4,0
.LVL410:
	.loc 1 276 13 is_stmt 1
	.loc 1 263 28
	.loc 1 263 21
	.loc 1 265 13
	.loc 1 266 13
	.loc 1 269 21 is_stmt 0
	slli	a0,t5,16
	.loc 1 266 17
	add	t4,t4,t6
.LVL411:
	.loc 1 267 13 is_stmt 1
	.loc 1 269 21 is_stmt 0
	srli	a5,a0,16
	.loc 1 267 16
	bge	a2,t4,.L575
.LVL412:
.L584:
	.loc 1 269 17 is_stmt 1
	.loc 1 269 21 is_stmt 0
	addi	a0,a5,10
	slli	a5,a0,16
	srai	a0,a5,16
	.loc 1 270 17 is_stmt 1
.LVL413:
	.loc 1 270 21 is_stmt 0
	li	t4,0
.LVL414:
.L576:
	.loc 1 276 13 is_stmt 1
	.loc 1 263 28
	.loc 1 263 21
	.loc 1 263 9 is_stmt 0
	addi	t3,t3,28
	beq	a4,t3,.L563
.LVL415:
.L500:
	.loc 1 265 13 is_stmt 1
	.loc 1 265 17 is_stmt 0
	lw	t2,0(t3)
	.loc 1 266 13 is_stmt 1
	.loc 1 269 21 is_stmt 0
	slli	a0,a0,16
	srli	t5,a0,16
	.loc 1 266 17
	add	t4,t4,t2
	.loc 1 267 13 is_stmt 1
	.loc 1 267 16 is_stmt 0
	bge	a2,t4,.L578
	.loc 1 269 17 is_stmt 1
	.loc 1 269 21 is_stmt 0
	addi	t4,t5,10
	.loc 1 265 17
	lw	t6,4(t3)
	.loc 1 269 21
	slli	a0,t4,16
	srai	t5,a0,16
	.loc 1 270 17 is_stmt 1
.LVL416:
	.loc 1 270 21 is_stmt 0
	li	t4,0
.LVL417:
	.loc 1 276 13 is_stmt 1
	.loc 1 263 28
	.loc 1 263 21
	.loc 1 269 21 is_stmt 0
	slli	a5,t5,16
	.loc 1 266 17
	add	a0,t4,t6
	.loc 1 263 9
	addi	t3,t3,4
	.loc 1 265 13 is_stmt 1
	.loc 1 266 13
	.loc 1 267 13
	.loc 1 269 21 is_stmt 0
	srli	t0,a5,16
	.loc 1 267 16
	blt	a2,a0,.L526
.L577:
	.loc 1 274 17 is_stmt 1
	.loc 1 274 41 is_stmt 0
	slt	t2,t2,t6
	.loc 1 274 21
	add	t5,t0,t2
	.loc 1 265 17
	lw	t2,4(t3)
	.loc 1 274 21
	slli	t4,t5,16
	srai	a5,t4,16
	.loc 1 276 13 is_stmt 1
	.loc 1 263 28
	.loc 1 263 21
	.loc 1 265 13
	.loc 1 266 13
	.loc 1 269 21 is_stmt 0
	slli	t5,a5,16
	.loc 1 266 17
	add	t4,a0,t2
	.loc 1 267 13 is_stmt 1
	.loc 1 269 21 is_stmt 0
	srli	a5,t5,16
	.loc 1 267 16
	blt	a2,t4,.L579
.L565:
	.loc 1 274 17 is_stmt 1
	.loc 1 274 41 is_stmt 0
	slt	t6,t6,t2
	.loc 1 274 21
	add	t0,a5,t6
	.loc 1 265 17
	lw	t6,8(t3)
	.loc 1 274 21
	slli	a0,t0,16
	srai	t5,a0,16
	.loc 1 276 13 is_stmt 1
	.loc 1 263 28
	.loc 1 263 21
	.loc 1 265 13
	.loc 1 266 13
	.loc 1 269 21 is_stmt 0
	slli	t0,t5,16
	.loc 1 266 17
	add	t4,t4,t6
	.loc 1 267 13 is_stmt 1
	.loc 1 269 21 is_stmt 0
	srli	a0,t0,16
	.loc 1 267 16
	blt	a2,t4,.L580
.L567:
	.loc 1 274 17 is_stmt 1
	.loc 1 274 41 is_stmt 0
	slt	t2,t2,t6
	.loc 1 274 21
	add	t5,a0,t2
	.loc 1 265 17
	lw	t2,12(t3)
	.loc 1 274 21
	slli	a5,t5,16
	srai	t0,a5,16
	.loc 1 276 13 is_stmt 1
	.loc 1 263 28
	.loc 1 263 21
	.loc 1 265 13
	.loc 1 266 13
	.loc 1 269 21 is_stmt 0
	slli	t5,t0,16
	.loc 1 266 17
	add	t0,t4,t2
	.loc 1 267 13 is_stmt 1
	.loc 1 269 21 is_stmt 0
	srli	a5,t5,16
	.loc 1 267 16
	blt	a2,t0,.L581
.L569:
	.loc 1 274 17 is_stmt 1
	.loc 1 274 41 is_stmt 0
	slt	t6,t6,t2
	.loc 1 274 21
	add	a0,a5,t6
	.loc 1 265 17
	lw	t6,16(t3)
	.loc 1 274 21
	slli	t4,a0,16
	srai	t5,t4,16
	.loc 1 276 13 is_stmt 1
	.loc 1 263 28
	.loc 1 263 21
	.loc 1 265 13
	.loc 1 266 13
	.loc 1 269 21 is_stmt 0
	slli	a0,t5,16
	.loc 1 266 17
	add	t4,t0,t6
	.loc 1 267 13 is_stmt 1
	.loc 1 269 21 is_stmt 0
	srli	a5,a0,16
	.loc 1 267 16
	blt	a2,t4,.L582
.L571:
	.loc 1 274 17 is_stmt 1
	.loc 1 274 41 is_stmt 0
	slt	t2,t2,t6
	.loc 1 274 21
	add	t5,a5,t2
	.loc 1 265 17
	lw	t2,20(t3)
	.loc 1 274 21
	slli	t0,t5,16
	srai	a0,t0,16
	.loc 1 276 13 is_stmt 1
	.loc 1 263 28
	.loc 1 263 21
	.loc 1 265 13
	.loc 1 266 13
	.loc 1 269 21 is_stmt 0
	slli	t5,a0,16
	.loc 1 266 17
	add	t4,t4,t2
	.loc 1 267 13 is_stmt 1
	.loc 1 269 21 is_stmt 0
	srli	t0,t5,16
	.loc 1 267 16
	blt	a2,t4,.L583
.L573:
	.loc 1 274 17 is_stmt 1
	.loc 1 274 41 is_stmt 0
	slt	t6,t6,t2
	.loc 1 274 21
	add	a0,t0,t6
	.loc 1 265 17
	lw	t6,24(t3)
	.loc 1 274 21
	slli	a5,a0,16
	srai	t5,a5,16
	.loc 1 276 13 is_stmt 1
	.loc 1 263 28
	.loc 1 263 21
	.loc 1 265 13
.LVL418:
	.loc 1 266 13
	.loc 1 269 21 is_stmt 0
	slli	a0,t5,16
	.loc 1 266 17
	add	t4,t4,t6
.LVL419:
	.loc 1 267 13 is_stmt 1
	.loc 1 269 21 is_stmt 0
	srli	a5,a0,16
	.loc 1 267 16
	blt	a2,t4,.L584
.L575:
	.loc 1 274 17 is_stmt 1
	.loc 1 274 41 is_stmt 0
	slt	t2,t2,t6
	.loc 1 274 21
	add	t5,a5,t2
	slli	t0,t5,16
	srai	a0,t0,16
	j	.L576
.L561:
	.loc 1 274 17 is_stmt 1
	.loc 1 274 41 is_stmt 0
	slt	t2,t5,t6
	.loc 1 274 21
	add	a5,a0,t2
.LVL420:
	slli	t5,a5,16
	srai	a0,t5,16
	j	.L562
.LVL421:
.L559:
	.loc 1 274 17 is_stmt 1
	.loc 1 274 41 is_stmt 0
	slt	t0,t2,t6
	.loc 1 274 21
	add	a0,t5,t0
.LVL422:
	slli	t2,a0,16
	srai	a0,t2,16
.LVL423:
	j	.L560
.LVL424:
.L557:
	.loc 1 274 17 is_stmt 1
	.loc 1 274 41 is_stmt 0
	slt	a5,t0,t6
	.loc 1 274 21
	add	t5,t2,a5
.LVL425:
	slli	t0,t5,16
	srai	a0,t0,16
	j	.L558
.LVL426:
.L555:
	.loc 1 274 17 is_stmt 1
	.loc 1 274 41 is_stmt 0
	slt	t0,t2,t6
	.loc 1 274 21
	add	a5,a0,t0
.LVL427:
	slli	t2,a5,16
	srai	a0,t2,16
	j	.L556
.LVL428:
.L553:
	.loc 1 274 17 is_stmt 1
	.loc 1 274 41 is_stmt 0
	slt	t5,t0,t6
	.loc 1 274 21
	add	a0,t2,t5
.LVL429:
	slli	t0,a0,16
	srai	a0,t0,16
.LVL430:
	j	.L554
.LVL431:
.L551:
	.loc 1 274 17 is_stmt 1
	.loc 1 274 41 is_stmt 0
	slt	a5,t5,t6
	.loc 1 274 21
	add	t2,t0,a5
.LVL432:
	slli	t5,t2,16
	srai	a0,t5,16
	j	.L552
.LVL433:
.L549:
	.loc 1 274 17 is_stmt 1
	.loc 1 274 41 is_stmt 0
	slt	a5,t3,t6
	.loc 1 274 21
	add	t0,t5,a5
.LVL434:
	slli	t2,t0,16
	srai	a0,t2,16
	j	.L550
.LVL435:
.L502:
	.loc 1 259 12
	li	a0,0
.LVL436:
	.loc 1 279 5 is_stmt 1
	.loc 1 280 1 is_stmt 0
	ret
	.cfi_endproc
.LFE6:
	.size	matrix_sum, .-matrix_sum
	.section	.text.matrix_mul_const,"ax",@progbits
	.align	2
	.globl	matrix_mul_const
	.type	matrix_mul_const, @function
matrix_mul_const:
.LFB7:
	.loc 1 288 1 is_stmt 1
	.cfi_startproc
.LVL437:
	.loc 1 289 5
	.loc 1 290 5
	.loc 1 290 17
	.loc 1 290 5 is_stmt 0
	beq	a0,zero,.L624
	.loc 1 288 1
	addi	sp,sp,-16
	.cfi_def_cfa_offset 16
	neg	t2,a0
	slli	a6,a0,1
	sw	s0,12(sp)
	sw	s1,8(sp)
	.cfi_offset 8, -4
	.cfi_offset 9, -8
	slli	s0,t2,1
	sw	s2,4(sp)
	sw	s3,0(sp)
	.cfi_offset 18, -12
	.cfi_offset 19, -16
	add	a6,a2,a6
	.loc 1 294 51
	li	t6,0
	.loc 1 290 12
	li	t0,0
	.loc 1 290 5
	slli	t2,t2,2
.LVL438:
.L587:
	.loc 1 292 21 is_stmt 1
	add	a7,s0,a6
	sub	a2,a6,a7
	addi	t1,a2,-2
	srli	s1,t1,1
	addi	a4,s1,1
	slli	a5,t6,2
	andi	s2,a4,7
	add	a5,a1,a5
	.loc 1 288 1 is_stmt 0
	mv	a4,a7
	beq	s2,zero,.L588
	li	s3,1
	beq	s2,s3,.L613
	li	t3,2
	beq	s2,t3,.L614
	li	t4,3
	beq	s2,t4,.L615
	li	t5,4
	beq	s2,t5,.L616
	li	a2,5
	beq	s2,a2,.L617
	li	t1,6
	beq	s2,t1,.L618
.LVL439:
	.loc 1 294 13 is_stmt 1
	.loc 1 294 28 is_stmt 0
	lh	s1,0(a7)
	.loc 1 292 9
	addi	a4,a7,2
	addi	a5,a5,4
	.loc 1 294 49
	mul	s2,s1,a3
	.loc 1 294 26
	sw	s2,-4(a5)
	.loc 1 292 28 is_stmt 1
	.loc 1 292 21
.L618:
	.loc 1 294 13
	.loc 1 294 28 is_stmt 0
	lh	s3,0(a4)
	.loc 1 292 9
	addi	a5,a5,4
	addi	a4,a4,2
	.loc 1 294 49
	mul	t3,s3,a3
	.loc 1 294 26
	sw	t3,-4(a5)
	.loc 1 292 28 is_stmt 1
	.loc 1 292 21
.L617:
	.loc 1 294 13
	.loc 1 294 28 is_stmt 0
	lh	t4,0(a4)
	.loc 1 292 9
	addi	a5,a5,4
	addi	a4,a4,2
	.loc 1 294 49
	mul	t5,t4,a3
	.loc 1 294 26
	sw	t5,-4(a5)
	.loc 1 292 28 is_stmt 1
	.loc 1 292 21
.L616:
	.loc 1 294 13
	.loc 1 294 28 is_stmt 0
	lh	a2,0(a4)
	.loc 1 292 9
	addi	a5,a5,4
	addi	a4,a4,2
	.loc 1 294 49
	mul	t1,a2,a3
	.loc 1 294 26
	sw	t1,-4(a5)
	.loc 1 292 28 is_stmt 1
	.loc 1 292 21
.L615:
	.loc 1 294 13
	.loc 1 294 28 is_stmt 0
	lh	s1,0(a4)
	.loc 1 292 9
	addi	a5,a5,4
	addi	a4,a4,2
	.loc 1 294 49
	mul	s2,s1,a3
	.loc 1 294 26
	sw	s2,-4(a5)
	.loc 1 292 28 is_stmt 1
	.loc 1 292 21
.L614:
	.loc 1 294 13
	.loc 1 294 28 is_stmt 0
	lh	s3,0(a4)
	.loc 1 292 9
	addi	a5,a5,4
	addi	a4,a4,2
	.loc 1 294 49
	mul	t3,s3,a3
	.loc 1 294 26
	sw	t3,-4(a5)
	.loc 1 292 28 is_stmt 1
	.loc 1 292 21
.L613:
	.loc 1 294 13
	.loc 1 294 28 is_stmt 0
	lh	t4,0(a4)
	.loc 1 292 9
	addi	a5,a5,4
	addi	a4,a4,2
	.loc 1 294 49
	mul	t5,t4,a3
	.loc 1 294 26
	sw	t5,-4(a5)
	.loc 1 292 28 is_stmt 1
	.loc 1 292 21
	.loc 1 292 9 is_stmt 0
	beq	a6,a4,.L622
.L588:
	.loc 1 294 13 is_stmt 1 discriminator 3
	.loc 1 294 28 is_stmt 0 discriminator 3
	lh	s3,0(a4)
	lh	s2,2(a4)
	lh	s1,4(a4)
	lh	t5,6(a4)
	lh	t4,8(a4)
	lh	t3,10(a4)
	lh	t1,12(a4)
	lh	a2,14(a4)
	.loc 1 294 49 discriminator 3
	mul	s3,s3,a3
	.loc 1 292 9 discriminator 3
	addi	a4,a4,16
	addi	a5,a5,32
	.loc 1 294 49 discriminator 3
	mul	s2,s2,a3
	.loc 1 294 26 discriminator 3
	sw	s3,-32(a5)
	.loc 1 292 28 is_stmt 1 discriminator 3
	.loc 1 292 21 discriminator 3
	.loc 1 294 13 discriminator 3
	.loc 1 294 49 is_stmt 0 discriminator 3
	mul	s1,s1,a3
	.loc 1 294 26 discriminator 3
	sw	s2,-28(a5)
	.loc 1 292 28 is_stmt 1 discriminator 3
	.loc 1 292 21 discriminator 3
	.loc 1 294 13 discriminator 3
	.loc 1 294 49 is_stmt 0 discriminator 3
	mul	t5,t5,a3
	.loc 1 294 26 discriminator 3
	sw	s1,-24(a5)
	.loc 1 292 28 is_stmt 1 discriminator 3
	.loc 1 292 21 discriminator 3
	.loc 1 294 13 discriminator 3
	.loc 1 294 49 is_stmt 0 discriminator 3
	mul	t4,t4,a3
	.loc 1 294 26 discriminator 3
	sw	t5,-20(a5)
	.loc 1 292 28 is_stmt 1 discriminator 3
	.loc 1 292 21 discriminator 3
	.loc 1 294 13 discriminator 3
	.loc 1 294 49 is_stmt 0 discriminator 3
	mul	t3,t3,a3
	.loc 1 294 26 discriminator 3
	sw	t4,-16(a5)
	.loc 1 292 28 is_stmt 1 discriminator 3
	.loc 1 292 21 discriminator 3
	.loc 1 294 13 discriminator 3
	.loc 1 294 49 is_stmt 0 discriminator 3
	mul	t1,t1,a3
	.loc 1 294 26 discriminator 3
	sw	t3,-12(a5)
	.loc 1 292 28 is_stmt 1 discriminator 3
	.loc 1 292 21 discriminator 3
	.loc 1 294 13 discriminator 3
	.loc 1 294 49 is_stmt 0 discriminator 3
	mul	a2,a2,a3
	.loc 1 294 26 discriminator 3
	sw	t1,-8(a5)
	.loc 1 292 28 is_stmt 1 discriminator 3
	.loc 1 292 21 discriminator 3
	.loc 1 294 13 discriminator 3
	.loc 1 294 26 is_stmt 0 discriminator 3
	sw	a2,-4(a5)
	.loc 1 292 28 is_stmt 1 discriminator 3
	.loc 1 292 21 discriminator 3
	.loc 1 292 9 is_stmt 0 discriminator 3
	bne	a6,a4,.L588
.L622:
	.loc 1 290 24 is_stmt 1
	.loc 1 290 25 is_stmt 0
	addi	t0,t0,1
.LVL440:
	.loc 1 290 17 is_stmt 1
	.loc 1 290 5 is_stmt 0
	add	t6,t6,a0
	sub	a6,a7,t2
	bne	a0,t0,.L587
	.loc 1 297 1
	lw	s0,12(sp)
	.cfi_restore 8
	lw	s1,8(sp)
	.cfi_restore 9
	lw	s2,4(sp)
	.cfi_restore 18
	lw	s3,0(sp)
	.cfi_restore 19
	addi	sp,sp,16
	.cfi_def_cfa_offset 0
	jr	ra
.LVL441:
.L624:
	ret
	.cfi_endproc
.LFE7:
	.size	matrix_mul_const, .-matrix_mul_const
	.section	.text.matrix_add_const,"ax",@progbits
	.align	2
	.globl	matrix_add_const
	.type	matrix_add_const, @function
matrix_add_const:
.LFB8:
	.loc 1 304 1 is_stmt 1
	.cfi_startproc
.LVL442:
	.loc 1 305 5
	.loc 1 306 5
	.loc 1 306 17
	.loc 1 306 5 is_stmt 0
	beq	a0,zero,.L666
	neg	t0,a0
	.loc 1 310 26
	slli	a3,a2,16
	slli	a5,a0,1
	slli	t2,t0,1
	srli	a3,a3,16
	add	a2,a1,a5
.LVL443:
	.loc 1 306 12
	li	t6,0
	.loc 1 306 5
	slli	t0,t0,2
.LVL444:
.L667:
	.loc 1 308 21 is_stmt 1
	add	a1,t2,a2
	sub	a4,a2,a1
	addi	t1,a4,-2
	srli	a6,t1,1
	addi	a7,a6,1
	andi	t3,a7,7
	.loc 1 304 1 is_stmt 0
	mv	a5,a1
	beq	t3,zero,.L684
	li	t4,1
	beq	t3,t4,.L670
	li	t5,2
	beq	t3,t5,.L672
	li	a4,3
	beq	t3,a4,.L674
	li	t1,4
	beq	t3,t1,.L676
	li	a6,5
	beq	t3,a6,.L678
	li	a7,6
	beq	t3,a7,.L680
.LVL445:
	.loc 1 310 13 is_stmt 1
	.loc 1 310 26 is_stmt 0
	lhu	t3,0(a1)
	.loc 1 308 9
	addi	a5,a1,2
	.loc 1 310 26
	add	t4,a3,t3
	sh	t4,0(a1)
	.loc 1 308 28 is_stmt 1
	.loc 1 308 21
.L680:
	.loc 1 310 13
	.loc 1 310 26 is_stmt 0
	lhu	t5,0(a5)
	.loc 1 308 9
	addi	a5,a5,2
	.loc 1 310 26
	add	a4,a3,t5
	sh	a4,-2(a5)
	.loc 1 308 28 is_stmt 1
	.loc 1 308 21
.L678:
	.loc 1 310 13
	.loc 1 310 26 is_stmt 0
	lhu	t1,0(a5)
	.loc 1 308 9
	addi	a5,a5,2
	.loc 1 310 26
	add	a6,a3,t1
	sh	a6,-2(a5)
	.loc 1 308 28 is_stmt 1
	.loc 1 308 21
.L676:
	.loc 1 310 13
	.loc 1 310 26 is_stmt 0
	lhu	a7,0(a5)
	.loc 1 308 9
	addi	a5,a5,2
	.loc 1 310 26
	add	t3,a3,a7
	sh	t3,-2(a5)
	.loc 1 308 28 is_stmt 1
	.loc 1 308 21
.L674:
	.loc 1 310 13
	.loc 1 310 26 is_stmt 0
	lhu	t4,0(a5)
	.loc 1 308 9
	addi	a5,a5,2
	.loc 1 310 26
	add	t5,a3,t4
	sh	t5,-2(a5)
	.loc 1 308 28 is_stmt 1
	.loc 1 308 21
.L672:
	.loc 1 310 13
	.loc 1 310 26 is_stmt 0
	lhu	a4,0(a5)
	.loc 1 308 9
	addi	a5,a5,2
	.loc 1 310 26
	add	t1,a3,a4
	sh	t1,-2(a5)
	.loc 1 308 28 is_stmt 1
	.loc 1 308 21
.L670:
	.loc 1 310 13
	.loc 1 310 26 is_stmt 0
	lhu	a6,0(a5)
	.loc 1 308 9
	addi	a5,a5,2
	.loc 1 310 26
	add	a7,a3,a6
	sh	a7,-2(a5)
	.loc 1 308 28 is_stmt 1
	.loc 1 308 21
	.loc 1 308 9 is_stmt 0
	beq	a2,a5,.L683
.L684:
	.loc 1 304 1
	addi	sp,sp,-16
	.cfi_def_cfa_offset 16
	sw	s0,12(sp)
	.cfi_offset 8, -4
.L630:
	.loc 1 310 13 is_stmt 1 discriminator 3
	.loc 1 310 26 is_stmt 0 discriminator 3
	lhu	s0,0(a5)
	lhu	t5,2(a5)
	lhu	t4,4(a5)
	lhu	t3,6(a5)
	lhu	t1,8(a5)
	lhu	a7,10(a5)
	lhu	a6,12(a5)
	lhu	a4,14(a5)
	add	s0,a3,s0
	add	t5,a3,t5
	add	t4,a3,t4
	add	t3,a3,t3
	add	t1,a3,t1
	add	a7,a3,a7
	add	a6,a3,a6
	add	a4,a3,a4
	sh	s0,0(a5)
	.loc 1 308 28 is_stmt 1 discriminator 3
	.loc 1 308 21 discriminator 3
	.loc 1 310 13 discriminator 3
	.loc 1 310 26 is_stmt 0 discriminator 3
	sh	t5,2(a5)
	.loc 1 308 28 is_stmt 1 discriminator 3
	.loc 1 308 21 discriminator 3
	.loc 1 310 13 discriminator 3
	.loc 1 310 26 is_stmt 0 discriminator 3
	sh	t4,4(a5)
	.loc 1 308 28 is_stmt 1 discriminator 3
	.loc 1 308 21 discriminator 3
	.loc 1 310 13 discriminator 3
	.loc 1 310 26 is_stmt 0 discriminator 3
	sh	t3,6(a5)
	.loc 1 308 28 is_stmt 1 discriminator 3
	.loc 1 308 21 discriminator 3
	.loc 1 310 13 discriminator 3
	.loc 1 310 26 is_stmt 0 discriminator 3
	sh	t1,8(a5)
	.loc 1 308 28 is_stmt 1 discriminator 3
	.loc 1 308 21 discriminator 3
	.loc 1 310 13 discriminator 3
	.loc 1 310 26 is_stmt 0 discriminator 3
	sh	a7,10(a5)
	.loc 1 308 28 is_stmt 1 discriminator 3
	.loc 1 308 21 discriminator 3
	.loc 1 310 13 discriminator 3
	.loc 1 310 26 is_stmt 0 discriminator 3
	sh	a6,12(a5)
	.loc 1 308 28 is_stmt 1 discriminator 3
	.loc 1 308 21 discriminator 3
	.loc 1 310 13 discriminator 3
	.loc 1 310 26 is_stmt 0 discriminator 3
	sh	a4,14(a5)
	.loc 1 308 28 is_stmt 1 discriminator 3
	.loc 1 308 21 discriminator 3
	.loc 1 308 9 is_stmt 0 discriminator 3
	addi	a5,a5,16
	bne	a2,a5,.L630
	.loc 1 306 24 is_stmt 1
	.loc 1 306 25 is_stmt 0
	addi	t6,t6,1
.LVL446:
	.loc 1 306 17 is_stmt 1
	.loc 1 306 5 is_stmt 0
	sub	a2,a1,t0
	beq	a0,t6,.L627
.L686:
.LVL447:
	.loc 1 308 21 is_stmt 1
	add	a1,t2,a2
	sub	a5,a2,a1
	addi	s0,a5,-2
	srli	t5,s0,1
	addi	t4,t5,1
	andi	t3,t4,7
	.loc 1 304 1 is_stmt 0
	mv	a5,a1
	beq	t3,zero,.L630
	li	t1,1
	beq	t3,t1,.L655
	li	a7,2
	beq	t3,a7,.L656
	li	a6,3
	beq	t3,a6,.L657
	li	a4,4
	beq	t3,a4,.L658
	li	s0,5
	beq	t3,s0,.L659
	li	t5,6
	bne	t3,t5,.L685
.LVL448:
.L660:
	.loc 1 310 13 is_stmt 1
	.loc 1 310 26 is_stmt 0
	lhu	t1,0(a5)
	.loc 1 308 9
	addi	a5,a5,2
	.loc 1 310 26
	add	a7,a3,t1
	sh	a7,-2(a5)
	.loc 1 308 28 is_stmt 1
	.loc 1 308 21
.L659:
	.loc 1 310 13
	.loc 1 310 26 is_stmt 0
	lhu	a6,0(a5)
	.loc 1 308 9
	addi	a5,a5,2
	.loc 1 310 26
	add	a4,a3,a6
	sh	a4,-2(a5)
	.loc 1 308 28 is_stmt 1
	.loc 1 308 21
.L658:
	.loc 1 310 13
	.loc 1 310 26 is_stmt 0
	lhu	s0,0(a5)
	.loc 1 308 9
	addi	a5,a5,2
	.loc 1 310 26
	add	t5,a3,s0
	sh	t5,-2(a5)
	.loc 1 308 28 is_stmt 1
	.loc 1 308 21
.L657:
	.loc 1 310 13
	.loc 1 310 26 is_stmt 0
	lhu	t4,0(a5)
	.loc 1 308 9
	addi	a5,a5,2
	.loc 1 310 26
	add	t3,a3,t4
	sh	t3,-2(a5)
	.loc 1 308 28 is_stmt 1
	.loc 1 308 21
.L656:
	.loc 1 310 13
	.loc 1 310 26 is_stmt 0
	lhu	t1,0(a5)
	.loc 1 308 9
	addi	a5,a5,2
	.loc 1 310 26
	add	a7,a3,t1
	sh	a7,-2(a5)
	.loc 1 308 28 is_stmt 1
	.loc 1 308 21
.L655:
	.loc 1 310 13
	.loc 1 310 26 is_stmt 0
	lhu	a6,0(a5)
	.loc 1 308 9
	addi	a5,a5,2
	.loc 1 310 26
	add	a4,a3,a6
	sh	a4,-2(a5)
	.loc 1 308 28 is_stmt 1
	.loc 1 308 21
	.loc 1 308 9 is_stmt 0
	bne	a2,a5,.L630
	.loc 1 306 24 is_stmt 1
	.loc 1 306 25 is_stmt 0
	addi	t6,t6,1
.LVL449:
	.loc 1 306 17 is_stmt 1
	.loc 1 306 5 is_stmt 0
	sub	a2,a1,t0
	bne	a0,t6,.L686
.L627:
	.loc 1 313 1
	lw	s0,12(sp)
	.cfi_restore 8
	addi	sp,sp,16
	.cfi_def_cfa_offset 0
	jr	ra
.L683:
	.loc 1 306 24 is_stmt 1
	.loc 1 306 25 is_stmt 0
	addi	t6,t6,1
.LVL450:
	.loc 1 306 17 is_stmt 1
	.loc 1 306 5 is_stmt 0
	sub	a2,a1,t0
	bne	a0,t6,.L667
.LVL451:
.L666:
	ret
.LVL452:
.L685:
	.cfi_def_cfa_offset 16
	.cfi_offset 8, -4
	.loc 1 310 13 is_stmt 1
	.loc 1 310 26 is_stmt 0
	lhu	t4,0(a1)
	.loc 1 308 9
	addi	a5,a1,2
	.loc 1 310 26
	add	t3,a3,t4
	sh	t3,0(a1)
	.loc 1 308 28 is_stmt 1
	.loc 1 308 21
	j	.L660
	.cfi_endproc
.LFE8:
	.size	matrix_add_const, .-matrix_add_const
	.section	.text.matrix_mul_vect,"ax",@progbits
	.align	2
	.globl	matrix_mul_vect
	.type	matrix_mul_vect, @function
matrix_mul_vect:
.LFB9:
	.loc 1 322 1
	.cfi_startproc
.LVL453:
	.loc 1 323 5
	.loc 1 324 5
	.loc 1 324 17
	.loc 1 324 5 is_stmt 0
	beq	a0,zero,.L725
	.loc 1 322 1
	addi	sp,sp,-48
	.cfi_def_cfa_offset 48
	slli	t6,a0,2
	slli	t4,a0,1
	sw	s0,44(sp)
	sw	s1,40(sp)
	sw	s2,36(sp)
	sw	s3,32(sp)
	sw	s4,28(sp)
	sw	s5,24(sp)
	sw	s6,20(sp)
	sw	s7,16(sp)
	sw	s8,12(sp)
	sw	s9,8(sp)
	.cfi_offset 8, -4
	.cfi_offset 9, -8
	.cfi_offset 18, -12
	.cfi_offset 19, -16
	.cfi_offset 20, -20
	.cfi_offset 21, -24
	.cfi_offset 22, -28
	.cfi_offset 23, -32
	.cfi_offset 24, -36
	.cfi_offset 25, -40
	mv	t3,a1
	add	t6,a1,t6
	add	t4,a3,t4
	.loc 1 324 5
	li	t5,0
.LVL454:
.L690:
	.loc 1 326 9 is_stmt 1
	.loc 1 327 9
	.loc 1 327 21
	sub	a7,t4,a3
	addi	t0,a7,-2
	srli	t1,t0,1
	addi	t2,t1,1
	slli	a5,t5,1
	andi	s0,t2,7
	add	a5,a2,a5
	.loc 1 324 5 is_stmt 0
	mv	a4,a3
	li	t1,0
	beq	s0,zero,.L689
	li	a1,1
	beq	s0,a1,.L715
	li	s1,2
	beq	s0,s1,.L716
	li	a6,3
	beq	s0,a6,.L717
	li	s2,4
	beq	s0,s2,.L718
	li	s3,5
	beq	s0,s3,.L719
	li	s4,6
	beq	s0,s4,.L720
.LVL455:
	.loc 1 329 13 is_stmt 1
	.loc 1 329 21 is_stmt 0
	lh	s5,0(a5)
	.loc 1 329 44
	lh	s6,0(a3)
	.loc 1 327 9
	addi	a5,a5,2
	addi	a4,a3,2
	.loc 1 329 42
	mul	t1,s5,s6
	.loc 1 327 28 is_stmt 1
	.loc 1 327 21
.L720:
	.loc 1 329 13
	.loc 1 329 21 is_stmt 0
	lh	s7,0(a5)
	.loc 1 329 44
	lh	s8,0(a4)
	.loc 1 327 9
	addi	a5,a5,2
	addi	a4,a4,2
	.loc 1 329 42
	mul	s9,s7,s8
	.loc 1 329 18
	add	t1,t1,s9
	.loc 1 327 28 is_stmt 1
	.loc 1 327 21
.L719:
	.loc 1 329 13
	.loc 1 329 21 is_stmt 0
	lh	a7,0(a5)
	.loc 1 329 44
	lh	t0,0(a4)
	.loc 1 327 9
	addi	a5,a5,2
	addi	a4,a4,2
	.loc 1 329 42
	mul	t2,a7,t0
	.loc 1 329 18
	add	t1,t1,t2
	.loc 1 327 28 is_stmt 1
	.loc 1 327 21
.L718:
	.loc 1 329 13
	.loc 1 329 21 is_stmt 0
	lh	s0,0(a5)
	.loc 1 329 44
	lh	a1,0(a4)
	.loc 1 327 9
	addi	a5,a5,2
	addi	a4,a4,2
	.loc 1 329 42
	mul	s1,s0,a1
	.loc 1 329 18
	add	t1,t1,s1
	.loc 1 327 28 is_stmt 1
	.loc 1 327 21
.L717:
	.loc 1 329 13
	.loc 1 329 21 is_stmt 0
	lh	s2,0(a5)
	.loc 1 329 44
	lh	a6,0(a4)
	.loc 1 327 9
	addi	a5,a5,2
	addi	a4,a4,2
	.loc 1 329 42
	mul	s3,s2,a6
	.loc 1 329 18
	add	t1,t1,s3
	.loc 1 327 28 is_stmt 1
	.loc 1 327 21
.L716:
	.loc 1 329 13
	.loc 1 329 21 is_stmt 0
	lh	s4,0(a5)
	.loc 1 329 44
	lh	s5,0(a4)
	.loc 1 327 9
	addi	a5,a5,2
	addi	a4,a4,2
	.loc 1 329 42
	mul	s6,s4,s5
	.loc 1 329 18
	add	t1,t1,s6
	.loc 1 327 28 is_stmt 1
	.loc 1 327 21
.L715:
	.loc 1 329 13
	.loc 1 329 21 is_stmt 0
	lh	s7,0(a5)
	.loc 1 329 44
	lh	s8,0(a4)
	.loc 1 327 9
	addi	a4,a4,2
	addi	a5,a5,2
	.loc 1 329 42
	mul	s9,s7,s8
	.loc 1 329 18
	add	t1,t1,s9
	.loc 1 327 28 is_stmt 1
	.loc 1 327 21
	.loc 1 327 9 is_stmt 0
	beq	t4,a4,.L723
.L689:
	.loc 1 329 13 is_stmt 1 discriminator 3
	.loc 1 329 21 is_stmt 0 discriminator 3
	lh	t0,0(a5)
	.loc 1 329 44 discriminator 3
	lh	a7,0(a4)
	lh	s9,2(a4)
	.loc 1 329 21 discriminator 3
	lh	s5,2(a5)
	lh	a1,4(a5)
	.loc 1 329 44 discriminator 3
	lh	s8,4(a4)
	.loc 1 329 42 discriminator 3
	mul	a6,t0,a7
	.loc 1 329 21 discriminator 3
	lh	s1,6(a5)
	.loc 1 329 44 discriminator 3
	lh	s7,6(a4)
	.loc 1 329 21 discriminator 3
	lh	s0,8(a5)
	.loc 1 329 44 discriminator 3
	lh	s6,8(a4)
	.loc 1 329 21 discriminator 3
	lh	t2,10(a5)
	.loc 1 329 44 discriminator 3
	lh	s4,10(a4)
	.loc 1 329 21 discriminator 3
	lh	t0,12(a5)
	.loc 1 329 44 discriminator 3
	lh	s3,12(a4)
	.loc 1 329 21 discriminator 3
	lh	a7,14(a5)
	.loc 1 329 42 discriminator 3
	mul	s5,s5,s9
	.loc 1 329 44 discriminator 3
	lh	s2,14(a4)
	.loc 1 329 18 discriminator 3
	add	t1,t1,a6
	.loc 1 327 28 is_stmt 1 discriminator 3
	.loc 1 327 21 discriminator 3
	.loc 1 329 13 discriminator 3
	.loc 1 327 9 is_stmt 0 discriminator 3
	addi	a4,a4,16
	addi	a5,a5,16
	.loc 1 329 42 discriminator 3
	mul	s9,a1,s8
	.loc 1 329 18 discriminator 3
	add	a1,t1,s5
	.loc 1 327 28 is_stmt 1 discriminator 3
	.loc 1 327 21 discriminator 3
	.loc 1 329 13 discriminator 3
	.loc 1 329 42 is_stmt 0 discriminator 3
	mul	s8,s1,s7
	.loc 1 329 18 discriminator 3
	add	s1,a1,s9
	.loc 1 327 28 is_stmt 1 discriminator 3
	.loc 1 327 21 discriminator 3
	.loc 1 329 13 discriminator 3
	.loc 1 329 42 is_stmt 0 discriminator 3
	mul	s7,s0,s6
	.loc 1 329 18 discriminator 3
	add	a6,s1,s8
	.loc 1 327 28 is_stmt 1 discriminator 3
	.loc 1 327 21 discriminator 3
	.loc 1 329 13 discriminator 3
	.loc 1 329 42 is_stmt 0 discriminator 3
	mul	s0,t2,s4
	.loc 1 329 18 discriminator 3
	add	s6,a6,s7
	.loc 1 327 28 is_stmt 1 discriminator 3
	.loc 1 327 21 discriminator 3
	.loc 1 329 13 discriminator 3
	.loc 1 329 42 is_stmt 0 discriminator 3
	mul	t2,t0,s3
	.loc 1 329 18 discriminator 3
	add	s4,s6,s0
	.loc 1 327 28 is_stmt 1 discriminator 3
	.loc 1 327 21 discriminator 3
	.loc 1 329 13 discriminator 3
	.loc 1 329 42 is_stmt 0 discriminator 3
	mul	t0,a7,s2
	.loc 1 329 18 discriminator 3
	add	s3,s4,t2
	.loc 1 327 28 is_stmt 1 discriminator 3
	.loc 1 327 21 discriminator 3
	.loc 1 329 13 discriminator 3
	.loc 1 329 18 is_stmt 0 discriminator 3
	add	t1,s3,t0
	.loc 1 327 28 is_stmt 1 discriminator 3
	.loc 1 327 21 discriminator 3
	.loc 1 327 9 is_stmt 0 discriminator 3
	bne	t4,a4,.L689
.L723:
	sw	t1,0(t3)
	.loc 1 324 24 is_stmt 1
	.loc 1 324 17
	.loc 1 324 5 is_stmt 0
	addi	t3,t3,4
	add	t5,t5,a0
	bne	t6,t3,.L690
	.loc 1 332 1
	lw	s0,44(sp)
	.cfi_restore 8
	lw	s1,40(sp)
	.cfi_restore 9
	lw	s2,36(sp)
	.cfi_restore 18
	lw	s3,32(sp)
	.cfi_restore 19
	lw	s4,28(sp)
	.cfi_restore 20
	lw	s5,24(sp)
	.cfi_restore 21
	lw	s6,20(sp)
	.cfi_restore 22
	lw	s7,16(sp)
	.cfi_restore 23
	lw	s8,12(sp)
	.cfi_restore 24
	lw	s9,8(sp)
	.cfi_restore 25
	addi	sp,sp,48
	.cfi_def_cfa_offset 0
	jr	ra
.LVL456:
.L725:
	ret
	.cfi_endproc
.LFE9:
	.size	matrix_mul_vect, .-matrix_mul_vect
	.section	.text.matrix_mul_matrix,"ax",@progbits
	.align	2
	.globl	matrix_mul_matrix
	.type	matrix_mul_matrix, @function
matrix_mul_matrix:
.LFB10:
	.loc 1 341 1 is_stmt 1
	.cfi_startproc
.LVL457:
	.loc 1 342 5
	.loc 1 343 5
	.loc 1 343 17
	.loc 1 341 1 is_stmt 0
	addi	sp,sp,-64
	.cfi_def_cfa_offset 64
	sw	s0,60(sp)
	sw	s1,56(sp)
	sw	s2,52(sp)
	sw	s3,48(sp)
	sw	s4,44(sp)
	sw	s5,40(sp)
	sw	s6,36(sp)
	sw	s7,32(sp)
	sw	s8,28(sp)
	sw	s9,24(sp)
	sw	s10,20(sp)
	sw	s11,16(sp)
	.cfi_offset 8, -4
	.cfi_offset 9, -8
	.cfi_offset 18, -12
	.cfi_offset 19, -16
	.cfi_offset 20, -20
	.cfi_offset 21, -24
	.cfi_offset 22, -28
	.cfi_offset 23, -32
	.cfi_offset 24, -36
	.cfi_offset 25, -40
	.cfi_offset 26, -44
	.cfi_offset 27, -48
	.loc 1 341 1
	sw	a1,12(sp)
	.loc 1 343 5
	beq	a0,zero,.L728
	mv	t2,a2
	slli	a2,a0,1
.LVL458:
	mv	s7,a0
	mv	s10,a3
	add	t6,t2,a2
	li	s8,0
	.loc 1 343 12
	li	s9,0
.LVL459:
.L730:
	.loc 1 345 21 is_stmt 1
	lw	a5,12(sp)
	slli	t0,s8,2
	mv	t5,s10
	add	t0,a5,t0
	.loc 1 345 16 is_stmt 0
	li	s0,0
.LVL460:
.L732:
	.loc 1 347 13 is_stmt 1
	.loc 1 348 13
	.loc 1 348 25
	sub	a4,t6,t2
	addi	t1,a4,-2
	srli	s1,t1,1
	addi	a0,s1,1
	andi	a6,a0,7
	mv	a1,t5
	mv	a3,t2
	li	a5,0
	beq	a6,zero,.L731
	li	a7,1
	beq	a6,a7,.L758
	li	s2,2
	beq	a6,s2,.L759
	li	s3,3
	beq	a6,s3,.L760
	li	s4,4
	beq	a6,s4,.L761
	li	s5,5
	beq	a6,s5,.L762
	li	s6,6
	beq	a6,s6,.L763
.LVL461:
	.loc 1 350 17
	.loc 1 350 33 is_stmt 0
	lh	s11,0(t2)
	.loc 1 350 56
	lh	t3,0(t5)
	.loc 1 348 13
	addi	a3,t2,2
	add	a1,t5,a2
	.loc 1 350 54
	mul	a5,s11,t3
	.loc 1 348 32 is_stmt 1
	.loc 1 348 25
.L763:
	.loc 1 350 17
	.loc 1 350 33 is_stmt 0
	lh	t4,0(a3)
	.loc 1 350 56
	lh	a4,0(a1)
	.loc 1 348 13
	addi	a3,a3,2
	add	a1,a1,a2
	.loc 1 350 54
	mul	t1,t4,a4
	.loc 1 350 30
	add	a5,a5,t1
	.loc 1 348 32 is_stmt 1
	.loc 1 348 25
.L762:
	.loc 1 350 17
	.loc 1 350 33 is_stmt 0
	lh	s1,0(a3)
	.loc 1 350 56
	lh	a0,0(a1)
	.loc 1 348 13
	addi	a3,a3,2
	add	a1,a1,a2
	.loc 1 350 54
	mul	a6,s1,a0
	.loc 1 350 30
	add	a5,a5,a6
	.loc 1 348 32 is_stmt 1
	.loc 1 348 25
.L761:
	.loc 1 350 17
	.loc 1 350 33 is_stmt 0
	lh	a7,0(a3)
	.loc 1 350 56
	lh	s2,0(a1)
	.loc 1 348 13
	addi	a3,a3,2
	add	a1,a1,a2
	.loc 1 350 54
	mul	s3,a7,s2
	.loc 1 350 30
	add	a5,a5,s3
	.loc 1 348 32 is_stmt 1
	.loc 1 348 25
.L760:
	.loc 1 350 17
	.loc 1 350 33 is_stmt 0
	lh	s4,0(a3)
	.loc 1 350 56
	lh	s5,0(a1)
	.loc 1 348 13
	addi	a3,a3,2
	add	a1,a1,a2
	.loc 1 350 54
	mul	s6,s4,s5
	.loc 1 350 30
	add	a5,a5,s6
	.loc 1 348 32 is_stmt 1
	.loc 1 348 25
.L759:
	.loc 1 350 17
	.loc 1 350 33 is_stmt 0
	lh	s11,0(a3)
	.loc 1 350 56
	lh	t3,0(a1)
	.loc 1 348 13
	addi	a3,a3,2
	add	a1,a1,a2
	.loc 1 350 54
	mul	t4,s11,t3
	.loc 1 350 30
	add	a5,a5,t4
	.loc 1 348 32 is_stmt 1
	.loc 1 348 25
.L758:
	.loc 1 350 17
	.loc 1 350 33 is_stmt 0
	lh	a4,0(a3)
	.loc 1 350 56
	lh	t1,0(a1)
	.loc 1 348 13
	addi	a3,a3,2
	add	a1,a1,a2
	.loc 1 350 54
	mul	s1,a4,t1
	.loc 1 350 30
	add	a5,a5,s1
	.loc 1 348 32 is_stmt 1
	.loc 1 348 25
	.loc 1 348 13 is_stmt 0
	beq	t6,a3,.L767
.L731:
	.loc 1 350 17 is_stmt 1 discriminator 3
	.loc 1 348 13 is_stmt 0 discriminator 3
	add	a6,a1,a2
	.loc 1 350 33 discriminator 3
	lh	a7,0(a3)
	.loc 1 350 56 discriminator 3
	lh	s2,0(a1)
	lh	t3,0(a6)
	.loc 1 350 33 discriminator 3
	lh	s6,2(a3)
	.loc 1 350 54 discriminator 3
	mul	a4,a7,s2
	.loc 1 348 13 discriminator 3
	add	a0,a6,a2
	add	s4,a0,a2
	.loc 1 350 56 discriminator 3
	lh	s11,0(a0)
	.loc 1 350 33 discriminator 3
	lh	s3,4(a3)
	.loc 1 350 56 discriminator 3
	lh	s5,0(s4)
	.loc 1 348 13 discriminator 3
	add	t4,s4,a2
	.loc 1 350 33 discriminator 3
	lh	s1,6(a3)
	.loc 1 348 13 discriminator 3
	add	a1,t4,a2
	.loc 1 350 33 discriminator 3
	lh	t1,8(a3)
	.loc 1 350 54 discriminator 3
	mul	s6,s6,t3
	.loc 1 350 56 discriminator 3
	lh	s4,0(t4)
	.loc 1 350 33 discriminator 3
	lh	a7,10(a3)
	.loc 1 350 56 discriminator 3
	lh	s2,0(a1)
	.loc 1 348 13 discriminator 3
	add	a0,a1,a2
	.loc 1 350 33 discriminator 3
	lh	a6,12(a3)
	.loc 1 350 56 discriminator 3
	lh	t4,0(a0)
	.loc 1 348 13 discriminator 3
	add	a1,a0,a2
	.loc 1 350 56 discriminator 3
	lh	t3,0(a1)
	.loc 1 350 33 discriminator 3
	lh	a0,14(a3)
	.loc 1 350 54 discriminator 3
	mul	s3,s3,s11
	.loc 1 350 30 discriminator 3
	add	a5,a5,a4
	.loc 1 348 32 is_stmt 1 discriminator 3
	.loc 1 348 25 discriminator 3
	.loc 1 350 17 discriminator 3
	.loc 1 350 30 is_stmt 0 discriminator 3
	add	s11,a5,s6
	.loc 1 348 32 is_stmt 1 discriminator 3
	.loc 1 348 25 discriminator 3
	.loc 1 350 17 discriminator 3
	.loc 1 348 13 is_stmt 0 discriminator 3
	addi	a3,a3,16
	add	a1,a1,a2
	.loc 1 350 54 discriminator 3
	mul	s1,s1,s5
	.loc 1 350 30 discriminator 3
	add	a4,s11,s3
	.loc 1 348 32 is_stmt 1 discriminator 3
	.loc 1 348 25 discriminator 3
	.loc 1 350 17 discriminator 3
	.loc 1 350 54 is_stmt 0 discriminator 3
	mul	s5,t1,s4
	.loc 1 350 30 discriminator 3
	add	t1,a4,s1
	.loc 1 348 32 is_stmt 1 discriminator 3
	.loc 1 348 25 discriminator 3
	.loc 1 350 17 discriminator 3
	.loc 1 350 54 is_stmt 0 discriminator 3
	mul	s4,a7,s2
	.loc 1 350 30 discriminator 3
	add	a7,t1,s5
	.loc 1 348 32 is_stmt 1 discriminator 3
	.loc 1 348 25 discriminator 3
	.loc 1 350 17 discriminator 3
	.loc 1 350 54 is_stmt 0 discriminator 3
	mul	s2,a6,t4
	.loc 1 350 30 discriminator 3
	add	a6,a7,s4
	.loc 1 348 32 is_stmt 1 discriminator 3
	.loc 1 348 25 discriminator 3
	.loc 1 350 17 discriminator 3
	.loc 1 350 54 is_stmt 0 discriminator 3
	mul	s6,a0,t3
	.loc 1 350 30 discriminator 3
	add	t4,a6,s2
	.loc 1 348 32 is_stmt 1 discriminator 3
	.loc 1 348 25 discriminator 3
	.loc 1 350 17 discriminator 3
	.loc 1 350 30 is_stmt 0 discriminator 3
	add	a5,t4,s6
	.loc 1 348 32 is_stmt 1 discriminator 3
	.loc 1 348 25 discriminator 3
	.loc 1 348 13 is_stmt 0 discriminator 3
	bne	t6,a3,.L731
.L767:
	sw	a5,0(t0)
	.loc 1 345 28 is_stmt 1
	.loc 1 345 29 is_stmt 0
	addi	a3,s0,1
.LVL462:
	.loc 1 345 21 is_stmt 1
	.loc 1 345 9 is_stmt 0
	addi	t0,t0,4
	addi	t5,t5,2
	beq	s7,a3,.L771
	mv	s0,a3
	j	.L732
.L771:
	.loc 1 343 24 is_stmt 1 discriminator 2
	.loc 1 343 25 is_stmt 0 discriminator 2
	addi	t0,s9,1
.LVL463:
	.loc 1 343 17 is_stmt 1 discriminator 2
	.loc 1 343 5 is_stmt 0 discriminator 2
	add	t2,t2,a2
	add	s8,s8,s7
	add	t6,t6,a2
	beq	s9,s0,.L728
	mv	s9,t0
	j	.L730
.LVL464:
.L728:
	.loc 1 354 1
	lw	s0,60(sp)
	.cfi_restore 8
	lw	s1,56(sp)
	.cfi_restore 9
	lw	s2,52(sp)
	.cfi_restore 18
	lw	s3,48(sp)
	.cfi_restore 19
	lw	s4,44(sp)
	.cfi_restore 20
	lw	s5,40(sp)
	.cfi_restore 21
	lw	s6,36(sp)
	.cfi_restore 22
	lw	s7,32(sp)
	.cfi_restore 23
	lw	s8,28(sp)
	.cfi_restore 24
	lw	s9,24(sp)
	.cfi_restore 25
	lw	s10,20(sp)
	.cfi_restore 26
	lw	s11,16(sp)
	.cfi_restore 27
	addi	sp,sp,64
	.cfi_def_cfa_offset 0
.LVL465:
	jr	ra
	.cfi_endproc
.LFE10:
	.size	matrix_mul_matrix, .-matrix_mul_matrix
	.section	.text.matrix_mul_matrix_bitextract,"ax",@progbits
	.align	2
	.globl	matrix_mul_matrix_bitextract
	.type	matrix_mul_matrix_bitextract, @function
matrix_mul_matrix_bitextract:
.LFB11:
	.loc 1 363 1 is_stmt 1
	.cfi_startproc
.LVL466:
	.loc 1 364 5
	.loc 1 365 5
	.loc 1 365 17
	.loc 1 365 5 is_stmt 0
	beq	a0,zero,.L797
	.loc 1 363 1
	addi	sp,sp,-32
	.cfi_def_cfa_offset 32
	slli	a7,a0,1
	sw	s0,28(sp)
	sw	s1,24(sp)
	sw	s2,20(sp)
	sw	s3,16(sp)
	sw	s4,12(sp)
	sw	s5,8(sp)
	sw	s6,4(sp)
	.cfi_offset 8, -4
	.cfi_offset 9, -8
	.cfi_offset 18, -12
	.cfi_offset 19, -16
	.cfi_offset 20, -20
	.cfi_offset 21, -24
	.cfi_offset 22, -28
	mv	t0,a0
	mv	s1,a1
	mv	s2,a3
	mv	t5,a2
	add	t1,a2,a7
	.loc 1 365 5
	li	t2,0
	.loc 1 365 12
	li	s0,0
.LVL467:
.L774:
	.loc 1 367 21 is_stmt 1
	slli	t4,t2,2
	add	t4,s1,t4
	mv	t3,s2
	.loc 1 367 16 is_stmt 0
	li	t6,0
.LVL468:
.L776:
	.loc 1 369 13 is_stmt 1
	.loc 1 370 13
	.loc 1 370 25
	sub	a5,t1,t5
	addi	a0,a5,-2
	srli	a1,a0,1
	addi	a2,a1,1
	andi	s4,a2,3
	mv	a6,t3
	mv	a3,t5
	li	s3,0
	beq	s4,zero,.L775
	li	a4,1
	beq	s4,a4,.L790
	li	s5,2
	beq	s4,s5,.L791
.LVL469:
.LBB143:
	.loc 1 372 17
	.loc 1 372 30 is_stmt 0
	lh	s3,0(t5)
	.loc 1 372 53
	lh	s6,0(t3)
.LBE143:
	.loc 1 370 13
	addi	a3,t5,2
	add	a6,t3,a7
.LBB144:
	.loc 1 372 24
	mul	a0,s3,s6
.LVL470:
	.loc 1 373 17 is_stmt 1
	.loc 1 373 33 is_stmt 0
	srai	a5,a0,2
	.loc 1 373 58
	srai	a1,a0,5
	.loc 1 373 33
	andi	a2,a5,15
	.loc 1 373 58
	andi	s4,a1,127
	.loc 1 373 56
	mul	s3,a2,s4
.LBE144:
	.loc 1 370 32 is_stmt 1
	.loc 1 370 25
.L791:
.LBB145:
	.loc 1 372 17
	.loc 1 372 30 is_stmt 0
	lh	s5,0(a3)
	.loc 1 372 53
	lh	a4,0(a6)
.LBE145:
	.loc 1 370 13
	addi	a3,a3,2
	add	a6,a6,a7
.LBB146:
	.loc 1 372 24
	mul	s6,s5,a4
	.loc 1 373 17 is_stmt 1
	.loc 1 373 33 is_stmt 0
	srai	a0,s6,2
	.loc 1 373 58
	srai	a5,s6,5
	.loc 1 373 33
	andi	a1,a0,15
	.loc 1 373 58
	andi	a2,a5,127
	.loc 1 373 56
	mul	s4,a1,a2
	.loc 1 373 30
	add	s3,s3,s4
.LBE146:
	.loc 1 370 32 is_stmt 1
	.loc 1 370 25
.L790:
.LBB147:
	.loc 1 372 17
	.loc 1 372 30 is_stmt 0
	lh	s5,0(a3)
	.loc 1 372 53
	lh	a4,0(a6)
.LBE147:
	.loc 1 370 13
	addi	a3,a3,2
	add	a6,a6,a7
.LBB148:
	.loc 1 372 24
	mul	s6,s5,a4
	.loc 1 373 17 is_stmt 1
	.loc 1 373 33 is_stmt 0
	srai	a0,s6,2
	.loc 1 373 58
	srai	a5,s6,5
	.loc 1 373 33
	andi	a1,a0,15
	.loc 1 373 58
	andi	a2,a5,127
	.loc 1 373 56
	mul	s4,a1,a2
	.loc 1 373 30
	add	s3,s3,s4
.LBE148:
	.loc 1 370 32 is_stmt 1
	.loc 1 370 25
	.loc 1 370 13 is_stmt 0
	beq	t1,a3,.L795
.L775:
.LBB149:
	.loc 1 372 17 is_stmt 1 discriminator 3
.LBE149:
	.loc 1 370 13 is_stmt 0 discriminator 3
	add	s5,a6,a7
.LBB150:
	.loc 1 372 53 discriminator 3
	lh	a2,0(a6)
	.loc 1 372 30 discriminator 3
	lh	s4,0(a3)
	.loc 1 372 53 discriminator 3
	lh	a4,0(s5)
.LBE150:
	.loc 1 370 13 discriminator 3
	add	s6,s5,a7
.LBB151:
	.loc 1 372 30 discriminator 3
	lh	a0,2(a3)
.LBE151:
	.loc 1 370 13 discriminator 3
	add	a6,s6,a7
.LBB152:
	.loc 1 372 30 discriminator 3
	lh	a1,4(a3)
	.loc 1 372 53 discriminator 3
	lh	s6,0(s6)
	.loc 1 372 24 discriminator 3
	mul	s4,s4,a2
.LVL471:
	.loc 1 373 17 is_stmt 1 discriminator 3
	.loc 1 372 53 is_stmt 0 discriminator 3
	lh	s5,0(a6)
	.loc 1 372 30 discriminator 3
	lh	a2,6(a3)
.LBE152:
	.loc 1 370 13 discriminator 3
	addi	a3,a3,8
	add	a6,a6,a7
.LBB153:
	.loc 1 372 24 discriminator 3
	mul	a0,a0,a4
	.loc 1 373 33 discriminator 3
	srai	a5,s4,2
	.loc 1 373 58 discriminator 3
	srai	s4,s4,5
.LVL472:
	.loc 1 373 33 discriminator 3
	andi	a4,a5,15
	.loc 1 373 58 discriminator 3
	andi	a5,s4,127
	.loc 1 372 24 discriminator 3
	mul	a1,a1,s6
	.loc 1 373 33 discriminator 3
	srai	s6,a0,2
	.loc 1 373 58 discriminator 3
	srai	a0,a0,5
	.loc 1 373 33 discriminator 3
	andi	s4,s6,15
	.loc 1 373 58 discriminator 3
	andi	s6,a0,127
	.loc 1 372 24 discriminator 3
	mul	a2,a2,s5
	.loc 1 373 33 discriminator 3
	srai	s5,a1,2
	.loc 1 373 58 discriminator 3
	srai	a1,a1,5
	.loc 1 373 33 discriminator 3
	andi	s5,s5,15
	.loc 1 373 58 discriminator 3
	andi	a1,a1,127
	.loc 1 373 56 discriminator 3
	mul	a5,a4,a5
	.loc 1 373 58 discriminator 3
	srai	a0,a2,5
	.loc 1 373 33 discriminator 3
	srai	a4,a2,2
	andi	a4,a4,15
	.loc 1 373 58 discriminator 3
	andi	a2,a0,127
	.loc 1 373 56 discriminator 3
	mul	s4,s4,s6
	.loc 1 373 30 discriminator 3
	add	s3,s3,a5
.LBE153:
	.loc 1 370 32 is_stmt 1 discriminator 3
	.loc 1 370 25 discriminator 3
.LBB154:
	.loc 1 372 17 discriminator 3
	.loc 1 373 17 discriminator 3
	.loc 1 373 56 is_stmt 0 discriminator 3
	mul	s6,s5,a1
	.loc 1 373 30 discriminator 3
	add	s5,s3,s4
.LBE154:
	.loc 1 370 32 is_stmt 1 discriminator 3
	.loc 1 370 25 discriminator 3
.LBB155:
	.loc 1 372 17 discriminator 3
	.loc 1 373 17 discriminator 3
	.loc 1 373 56 is_stmt 0 discriminator 3
	mul	a1,a4,a2
	.loc 1 373 30 discriminator 3
	add	a5,s5,s6
.LBE155:
	.loc 1 370 32 is_stmt 1 discriminator 3
	.loc 1 370 25 discriminator 3
.LBB156:
	.loc 1 372 17 discriminator 3
	.loc 1 373 17 discriminator 3
	.loc 1 373 30 is_stmt 0 discriminator 3
	add	s3,a5,a1
.LBE156:
	.loc 1 370 32 is_stmt 1 discriminator 3
	.loc 1 370 25 discriminator 3
	.loc 1 370 13 is_stmt 0 discriminator 3
	bne	t1,a3,.L775
.L795:
	sw	s3,0(t4)
	.loc 1 367 28 is_stmt 1
	.loc 1 367 29 is_stmt 0
	addi	a3,t6,1
.LVL473:
	.loc 1 367 21 is_stmt 1
	.loc 1 367 9 is_stmt 0
	addi	t4,t4,4
	addi	t3,t3,2
	beq	t0,a3,.L800
	mv	t6,a3
	j	.L776
.L800:
	.loc 1 365 24 is_stmt 1 discriminator 2
	.loc 1 365 25 is_stmt 0 discriminator 2
	addi	t4,s0,1
.LVL474:
	.loc 1 365 17 is_stmt 1 discriminator 2
	.loc 1 365 5 is_stmt 0 discriminator 2
	add	t5,t5,a7
	add	t2,t2,t0
	add	t1,t1,a7
	beq	s0,t6,.L772
	mv	s0,t4
	j	.L774
.L772:
	.loc 1 377 1
	lw	s0,28(sp)
	.cfi_restore 8
	lw	s1,24(sp)
	.cfi_restore 9
.LVL475:
	lw	s2,20(sp)
	.cfi_restore 18
.LVL476:
	lw	s3,16(sp)
	.cfi_restore 19
	lw	s4,12(sp)
	.cfi_restore 20
	lw	s5,8(sp)
	.cfi_restore 21
	lw	s6,4(sp)
	.cfi_restore 22
	addi	sp,sp,32
	.cfi_def_cfa_offset 0
	jr	ra
.LVL477:
.L797:
	ret
	.cfi_endproc
.LFE11:
	.size	matrix_mul_matrix_bitextract, .-matrix_mul_matrix_bitextract
	.text
.Letext0:
	.file 2 "../tests/custom/coremark/core_portme.h"
	.file 3 "../tests/custom/coremark/coremark.h"